
mtest02.elf:     file format elf32-littlenios2
mtest02.elf
architecture: nios2:r1, flags 0x00000112:
EXEC_P, HAS_SYMS, D_PAGED
start address 0x00000230

Program Header:
    LOAD off    0x00001000 vaddr 0x00000000 paddr 0x00000000 align 2**12
         filesz 0x00000020 memsz 0x00000020 flags r-x
    LOAD off    0x00001020 vaddr 0x00000020 paddr 0x00000020 align 2**12
         filesz 0x0001e4d4 memsz 0x0001e4d4 flags r-x
    LOAD off    0x0001f4f4 vaddr 0x0001e4f4 paddr 0x000200bc align 2**12
         filesz 0x00001bc8 memsz 0x00001bc8 flags rw-
    LOAD off    0x00021c84 vaddr 0x00021c84 paddr 0x00021c84 align 2**12
         filesz 0x00000000 memsz 0x00000168 flags rw-

Sections:
Idx Name          Size      VMA       LMA       File off  Algn
  0 .entry        00000020  00000000  00000000  00001000  2**5
                  CONTENTS, ALLOC, LOAD, READONLY, CODE
  1 .exceptions   00000210  00000020  00000020  00001020  2**2
                  CONTENTS, ALLOC, LOAD, READONLY, CODE
  2 .text         0001d05c  00000230  00000230  00001230  2**2
                  CONTENTS, ALLOC, LOAD, READONLY, CODE
  3 .rodata       00001268  0001d28c  0001d28c  0001e28c  2**2
                  CONTENTS, ALLOC, LOAD, READONLY, DATA
  4 .rwdata       00001bc8  0001e4f4  000200bc  0001f4f4  2**2
                  CONTENTS, ALLOC, LOAD, DATA, SMALL_DATA
  5 .bss          00000168  00021c84  00021c84  00021c84  2**2
                  ALLOC, SMALL_DATA
  6 .new_sdram_controller_0 00000000  00021dec  00021dec  000210bc  2**0
                  CONTENTS
  7 .epcs_flash_controller_0 00000000  00801000  00801000  000210bc  2**0
                  CONTENTS
  8 .comment      00000023  00000000  00000000  000210bc  2**0
                  CONTENTS, READONLY
  9 .debug_aranges 000013e0  00000000  00000000  000210e0  2**3
                  CONTENTS, READONLY, DEBUGGING
 10 .debug_info   00037027  00000000  00000000  000224c0  2**0
                  CONTENTS, READONLY, DEBUGGING
 11 .debug_abbrev 0000d2b7  00000000  00000000  000594e7  2**0
                  CONTENTS, READONLY, DEBUGGING
 12 .debug_line   00011e48  00000000  00000000  0006679e  2**0
                  CONTENTS, READONLY, DEBUGGING
 13 .debug_frame  0000324c  00000000  00000000  000785e8  2**2
                  CONTENTS, READONLY, DEBUGGING
 14 .debug_str    00004cbe  00000000  00000000  0007b834  2**0
                  CONTENTS, READONLY, DEBUGGING
 15 .debug_loc    000260a6  00000000  00000000  000804f2  2**0
                  CONTENTS, READONLY, DEBUGGING
 16 .debug_alt_sim_info 00000010  00000000  00000000  000a6598  2**2
                  CONTENTS, READONLY, DEBUGGING
 17 .debug_ranges 00002288  00000000  00000000  000a65a8  2**3
                  CONTENTS, READONLY, DEBUGGING
 18 .thread_model 00000003  00000000  00000000  000ac9e2  2**0
                  CONTENTS, READONLY
 19 .cpu          0000000c  00000000  00000000  000ac9e5  2**0
                  CONTENTS, READONLY
 20 .qsys         00000001  00000000  00000000  000ac9f1  2**0
                  CONTENTS, READONLY
 21 .simulation_enabled 00000001  00000000  00000000  000ac9f2  2**0
                  CONTENTS, READONLY
 22 .stderr_dev   0000000b  00000000  00000000  000ac9f3  2**0
                  CONTENTS, READONLY
 23 .stdin_dev    0000000b  00000000  00000000  000ac9fe  2**0
                  CONTENTS, READONLY
 24 .stdout_dev   0000000b  00000000  00000000  000aca09  2**0
                  CONTENTS, READONLY
 25 .sopc_system_name 00000006  00000000  00000000  000aca14  2**0
                  CONTENTS, READONLY
 26 .quartus_project_dir 00000012  00000000  00000000  000aca1a  2**0
                  CONTENTS, READONLY
 27 .jdi          00006130  00000000  00000000  000aca2c  2**0
                  CONTENTS, READONLY
 28 .sopcinfo     00081c6c  00000000  00000000  000b2b5c  2**0
                  CONTENTS, READONLY
SYMBOL TABLE:
00000000 l    d  .entry	00000000 .entry
00000020 l    d  .exceptions	00000000 .exceptions
00000230 l    d  .text	00000000 .text
0001d28c l    d  .rodata	00000000 .rodata
0001e4f4 l    d  .rwdata	00000000 .rwdata
00021c84 l    d  .bss	00000000 .bss
00021dec l    d  .new_sdram_controller_0	00000000 .new_sdram_controller_0
00801000 l    d  .epcs_flash_controller_0	00000000 .epcs_flash_controller_0
00000000 l    d  .comment	00000000 .comment
00000000 l    d  .debug_aranges	00000000 .debug_aranges
00000000 l    d  .debug_info	00000000 .debug_info
00000000 l    d  .debug_abbrev	00000000 .debug_abbrev
00000000 l    d  .debug_line	00000000 .debug_line
00000000 l    d  .debug_frame	00000000 .debug_frame
00000000 l    d  .debug_str	00000000 .debug_str
00000000 l    d  .debug_loc	00000000 .debug_loc
00000000 l    d  .debug_alt_sim_info	00000000 .debug_alt_sim_info
00000000 l    d  .debug_ranges	00000000 .debug_ranges
00000000 l    df *ABS*	00000000 ../mtest02_bsp//obj/HAL/src/crt0.o
00000268 l       .text	00000000 alt_after_alt_main
00000000 l    df *ABS*	00000000 alt_irq_handler.c
00000000 l    df *ABS*	00000000 alt_instruction_exception_entry.c
00000000 l    df *ABS*	00000000 memtest.c
0000026c l     F .text	0000007c MenuHeader
000002e8 l     F .text	00000058 MenuBegin
00000340 l     F .text	0000004c MenuItem
0000041c l     F .text	00000104 MenuEnd
00021c84 l     O .bss	00000004 entry.3380
00021c88 l     O .bss	00000001 ch.3381
00000520 l     F .text	00000114 MemGetAddressRange
00000634 l     F .text	00000074 MemTestDataBus
000006a8 l     F .text	000001e0 MemTestAddressBus
00000888 l     F .text	00000220 MemTest8_16BitAccess
00000aa8 l     F .text	000001a4 MemTestDevice
00000c4c l     F .text	000001b4 TestRam
00000e00 l     F .text	00000150 FlashCheckIfBlockErased
00000f50 l     F .text	00000318 FlashTestBlockWrite
00001268 l     F .text	00000308 FlashTestReadWrite
00001570 l     F .text	000000fc FlashTestBlockErase
0000166c l     F .text	00000138 FlashRunTests
000017a4 l     F .text	00000180 GetFlashName
00001924 l     F .text	00000348 FlashErase
00001c6c l     F .text	00000288 FlashFindErasedBlocks
00001ef4 l     F .text	000001dc TestFlash
000020d0 l     F .text	00000170 TopMenu
00000000 l    df *ABS*	00000000 lib2-divmod.c
00000000 l    df *ABS*	00000000 lib2-mul.c
00000000 l    df *ABS*	00000000 getc.c
00000000 l    df *ABS*	00000000 impure.c
0001e4f4 l     O .rwdata	00000424 impure_data
00000000 l    df *ABS*	00000000 malloc.c
00000000 l    df *ABS*	00000000 mallocr.c
00000000 l    df *ABS*	00000000 memcmp.c
00000000 l    df *ABS*	00000000 memcpy.c
00000000 l    df *ABS*	00000000 printf.c
00000000 l    df *ABS*	00000000 putchar.c
00000000 l    df *ABS*	00000000 puts.c
00000000 l    df *ABS*	00000000 rget.c
00000000 l    df *ABS*	00000000 sbrkr.c
00000000 l    df *ABS*	00000000 sscanf.c
00000000 l    df *ABS*	00000000 stdio.c
00000000 l    df *ABS*	00000000 strlen.c
00000000 l    df *ABS*	00000000 vfscanf.c
0001dd76 l     O .rodata	00000022 basefix.4340
00000000 l    df *ABS*	00000000 vfprintf.c
0001ddda l     O .rodata	00000010 zeroes.4404
000070e4 l     F .text	000000bc __sbprintf
0001ddea l     O .rodata	00000010 blanks.4403
00000000 l    df *ABS*	00000000 writer.c
00000000 l    df *ABS*	00000000 wsetup.c
00000000 l    df *ABS*	00000000 closer.c
00000000 l    df *ABS*	00000000 ctype_.c
0001defb l     O .rodata	00000180 _ctype_b
00000000 l    df *ABS*	00000000 dtoa.c
000073a8 l     F .text	00000228 quorem
00000000 l    df *ABS*	00000000 fflush.c
00000000 l    df *ABS*	00000000 findfp.c
00008f00 l     F .text	00000008 __fp_unlock
00008f14 l     F .text	0000019c __sinit.part.1
000090b0 l     F .text	00000008 __fp_lock
00000000 l    df *ABS*	00000000 mallocr.c
00000000 l    df *ABS*	00000000 fvwrite.c
00000000 l    df *ABS*	00000000 fwalk.c
00000000 l    df *ABS*	00000000 int_errno.c
00000000 l    df *ABS*	00000000 iswspace.c
00000000 l    df *ABS*	00000000 locale.c
0001ed40 l     O .rwdata	00000020 lc_ctype_charset
0001ed20 l     O .rwdata	00000020 lc_message_charset
0001ed60 l     O .rwdata	00000038 lconv
00000000 l    df *ABS*	00000000 lseekr.c
00000000 l    df *ABS*	00000000 makebuf.c
00000000 l    df *ABS*	00000000 mbrtowc.c
00000000 l    df *ABS*	00000000 mbtowc_r.c
00000000 l    df *ABS*	00000000 memchr.c
00000000 l    df *ABS*	00000000 memmove.c
00000000 l    df *ABS*	00000000 memset.c
00000000 l    df *ABS*	00000000 mprec.c
0001e098 l     O .rodata	0000000c p05.2768
00000000 l    df *ABS*	00000000 putc.c
00000000 l    df *ABS*	00000000 readr.c
00000000 l    df *ABS*	00000000 mallocr.c
00000000 l    df *ABS*	00000000 refill.c
0000bdcc l     F .text	0000001c lflush
00000000 l    df *ABS*	00000000 s_fpclassify.c
00000000 l    df *ABS*	00000000 sccl.c
00000000 l    df *ABS*	00000000 sf_nan.c
00000000 l    df *ABS*	00000000 sprintf.c
00000000 l    df *ABS*	00000000 strcmp.c
00000000 l    df *ABS*	00000000 strtod.c
0000c2a8 l     F .text	00000064 sulp
0001e1cc l     O .rodata	00000014 fpinan.2773
0001e1e0 l     O .rodata	00000014 fpi.2737
0001e1f4 l     O .rodata	00000028 tinytens
00000000 l    df *ABS*	00000000 strtol.c
00000000 l    df *ABS*	00000000 strtoll_r.c
00000000 l    df *ABS*	00000000 strtoul.c
00000000 l    df *ABS*	00000000 strtoull_r.c
00000000 l    df *ABS*	00000000 vfscanf.c
0001e21c l     O .rodata	00000022 basefix.3791
00000000 l    df *ABS*	00000000 vfprintf.c
0001e23e l     O .rodata	00000010 zeroes.4389
0001e24e l     O .rodata	00000010 blanks.4388
00000000 l    df *ABS*	00000000 ungetc.c
00000000 l    df *ABS*	00000000 vfprintf.c
00011e34 l     F .text	000000fc __sprint_r.part.0
0001e25e l     O .rodata	00000010 zeroes.4349
00013470 l     F .text	000000bc __sbprintf
0001e26e l     O .rodata	00000010 blanks.4348
00000000 l    df *ABS*	00000000 wbuf.c
00000000 l    df *ABS*	00000000 mallocr.c
00000000 l    df *ABS*	00000000 fclose.c
00000000 l    df *ABS*	00000000 fputwc.c
00000000 l    df *ABS*	00000000 fstatr.c
00000000 l    df *ABS*	00000000 gdtoa-gethex.c
00013ac8 l     F .text	00000100 rshift
00000000 l    df *ABS*	00000000 gdtoa-hexnan.c
00000000 l    df *ABS*	00000000 isattyr.c
00000000 l    df *ABS*	00000000 strncmp.c
00000000 l    df *ABS*	00000000 vfprintf.c
0001e37e l     O .rodata	00000010 zeroes.4333
0001e38e l     O .rodata	00000010 blanks.4332
00000000 l    df *ABS*	00000000 wcrtomb.c
00000000 l    df *ABS*	00000000 wctomb_r.c
00000000 l    df *ABS*	00000000 libgcc2.c
00000000 l    df *ABS*	00000000 libgcc2.c
00000000 l    df *ABS*	00000000 libgcc2.c
00000000 l    df *ABS*	00000000 libgcc2.c
00000000 l    df *ABS*	00000000 eqsf2.c
00000000 l    df *ABS*	00000000 gesf2.c
00000000 l    df *ABS*	00000000 lesf2.c
00000000 l    df *ABS*	00000000 adddf3.c
00000000 l    df *ABS*	00000000 divdf3.c
00000000 l    df *ABS*	00000000 eqdf2.c
00000000 l    df *ABS*	00000000 gedf2.c
00000000 l    df *ABS*	00000000 ledf2.c
00000000 l    df *ABS*	00000000 muldf3.c
00000000 l    df *ABS*	00000000 subdf3.c
00000000 l    df *ABS*	00000000 fixdfsi.c
00000000 l    df *ABS*	00000000 floatsidf.c
00000000 l    df *ABS*	00000000 floatunsidf.c
00000000 l    df *ABS*	00000000 truncdfsf2.c
00000000 l    df *ABS*	00000000 libgcc2.c
00000000 l    df *ABS*	00000000 libgcc2.c
00000000 l    df *ABS*	00000000 alt_close.c
00019878 l     F .text	0000003c alt_get_errno
00000000 l    df *ABS*	00000000 alt_dev.c
0001998c l     F .text	0000002c alt_dev_null_write
00000000 l    df *ABS*	00000000 alt_errno.c
00000000 l    df *ABS*	00000000 alt_flash_dev.c
00000000 l    df *ABS*	00000000 alt_fstat.c
00019a74 l     F .text	0000003c alt_get_errno
00000000 l    df *ABS*	00000000 alt_isatty.c
00019b68 l     F .text	0000003c alt_get_errno
00000000 l    df *ABS*	00000000 alt_load.c
00019c50 l     F .text	00000068 alt_load_section
00000000 l    df *ABS*	00000000 alt_lseek.c
00019d3c l     F .text	0000003c alt_get_errno
00000000 l    df *ABS*	00000000 alt_main.c
00000000 l    df *ABS*	00000000 alt_malloc_lock.c
00000000 l    df *ABS*	00000000 alt_read.c
00019f18 l     F .text	0000003c alt_get_errno
00000000 l    df *ABS*	00000000 alt_release_fd.c
00000000 l    df *ABS*	00000000 alt_sbrk.c
000200ac l     O .rwdata	00000004 heap_end
00000000 l    df *ABS*	00000000 alt_write.c
0001a18c l     F .text	0000003c alt_get_errno
00000000 l    df *ABS*	00000000 alt_sys_init.c
0001a2c8 l     F .text	00000034 alt_dev_reg
0001ef40 l     O .rwdata	000000cc epcs_flash_controller_0
0001f00c l     O .rwdata	00001060 jtag_uart_0
00000000 l    df *ABS*	00000000 altera_avalon_epcs_flash_controller.c
0001a388 l     F .text	00000034 alt_flash_device_register
0001a410 l     F .text	000003f8 alt_epcs_flash_query
0001a808 l     F .text	000000ec alt_epcs_flash_memcmp
0001abe0 l     F .text	00000094 alt_epcs_test_address
00000000 l    df *ABS*	00000000 altera_avalon_jtag_uart_fd.c
00000000 l    df *ABS*	00000000 altera_avalon_jtag_uart_init.c
0001b0a8 l     F .text	0000020c altera_avalon_jtag_uart_irq
0001b2b4 l     F .text	000000a0 altera_avalon_jtag_uart_timeout
00000000 l    df *ABS*	00000000 altera_avalon_jtag_uart_ioctl.c
00000000 l    df *ABS*	00000000 altera_avalon_jtag_uart_read.c
00000000 l    df *ABS*	00000000 altera_avalon_jtag_uart_write.c
00000000 l    df *ABS*	00000000 epcs_commands.c
0001b948 l     F .text	00000038 epcs_test_wip
0001b980 l     F .text	0000003c epcs_await_wip_released
00000000 l    df *ABS*	00000000 alt_alarm_start.c
00000000 l    df *ABS*	00000000 alt_dcache_flush_all.c
00000000 l    df *ABS*	00000000 alt_dev_llist_insert.c
0001c074 l     F .text	0000003c alt_get_errno
00000000 l    df *ABS*	00000000 alt_do_ctors.c
00000000 l    df *ABS*	00000000 alt_do_dtors.c
00000000 l    df *ABS*	00000000 alt_find_dev.c
00000000 l    df *ABS*	00000000 alt_icache_flush_all.c
00000000 l    df *ABS*	00000000 alt_iic.c
00000000 l    df *ABS*	00000000 alt_iic_isr_register.c
00000000 l    df *ABS*	00000000 alt_io_redirect.c
0001c564 l     F .text	000000e4 alt_open_fd
00000000 l    df *ABS*	00000000 alt_irq_vars.c
00000000 l    df *ABS*	00000000 alt_open.c
0001c6c4 l     F .text	0000003c alt_get_errno
0001c700 l     F .text	000000ec alt_file_locked
00000000 l    df *ABS*	00000000 alt_tick.c
00000000 l    df *ABS*	00000000 altera_nios2_gen2_irq.c
00000000 l    df *ABS*	00000000 altera_avalon_spi.c
00000000 l    df *ABS*	00000000 alt_find_file.c
00000000 l    df *ABS*	00000000 alt_get_fd.c
00000000 l    df *ABS*	00000000 atexit.c
00000000 l    df *ABS*	00000000 exit.c
00000000 l    df *ABS*	00000000 __atexit.c
00000000 l    df *ABS*	00000000 __call_atexit.c
00000000 l    df *ABS*	00000000 alt_exit.c
00021cc0 g     O .bss	00000004 alt_instruction_exception_handler
00002fd0 g     F .text	00000018 putchar
0000b528 g     F .text	00000074 _mprec_log10
0001ab54 g     F .text	0000008c alt_epcs_flash_get_info
0000b614 g     F .text	0000008c __any_on
00014674 g     F .text	00000054 _isatty_r
0001e0a4 g     O .rodata	00000028 __mprec_tinytens
00019e54 g     F .text	0000007c alt_main
00002fe8 g     F .text	000000c0 _puts_r
00021cec g     O .bss	00000100 alt_irq
00009e40 g     F .text	00000060 _lseek_r
000200bc g       *ABS*	00000000 __flash_rwdata_start
000180a8 g     F .text	00000088 .hidden __eqdf2
00021dec g       *ABS*	00000000 __alt_heap_start
00002f8c g     F .text	0000003c printf
00015d08 g     F .text	0000009c _wcrtomb_r
00003364 g     F .text	0000005c __sseek
00009260 g     F .text	00000010 __sinit
0001352c g     F .text	00000140 __swbuf_r
00009d64 g     F .text	0000007c _setlocale_r
000090b8 g     F .text	00000078 __sfmoreglue
00011e1c g     F .text	00000018 ungetc
00019ef4 g     F .text	00000024 __malloc_unlock
0000c30c g     F .text	000015e4 _strtod_r
0000038c g     F .text	00000090 GetInputString
0000e6ac g     F .text	00000100 _sfread_r
0000a364 g     F .text	0000015c memmove
00009248 g     F .text	00000018 _cleanup
0000a5e8 g     F .text	000000a8 _Balloc
00018130 g     F .text	000000dc .hidden __gtdf2
0001caec g     F .text	00000024 altera_nios2_gen2_irq_init
0001b9bc g     F .text	000000fc epcs_sector_erase
00000000 g     F .entry	0000000c __reset
00000020 g       *ABS*	00000000 __flash_exceptions_start
00013a6c g     F .text	0000005c _fstat_r
00021c98 g     O .bss	00000004 errno
00003130 g     F .text	00000014 __srget
000032e0 g     F .text	00000008 __seofread
00014968 g     F .text	000013a0 ___svfiprintf_internal_r
00021cac g     O .bss	00000004 alt_argv
0002806c g       *ABS*	00000000 _gp
0001edc0 g     O .rwdata	00000180 alt_fd_list
0000246c g     F .text	00000070 _getc_r
000024dc g     F .text	00000088 getc
00002fc8 g     F .text	00000008 _putchar_r
0001bc00 g     F .text	0000006c epcs_write_status_register
0001c214 g     F .text	00000090 alt_find_dev
00002e14 g     F .text	00000148 memcpy
00014418 g     F .text	0000025c __hexnan
00008f08 g     F .text	0000000c _cleanup_r
000194e8 g     F .text	000000dc .hidden __floatsidf
0001c648 g     F .text	0000007c alt_io_redirect
0001820c g     F .text	000000f4 .hidden __ltdf2
0001d28c g       *ABS*	00000000 __DTOR_END__
000030a8 g     F .text	00000014 puts
0001ced8 g     F .text	0000009c alt_exception_cause_generated_bad_addr
0000a108 g     F .text	000000d8 mbrtowc
0001acec g     F .text	00000100 alt_epcs_flash_write_block
0000bfbc g     F .text	00000074 __fpclassifyd
0000b484 g     F .text	000000a4 __ratio
00013454 g     F .text	0000001c __vfiprintf_internal
0001b4ac g     F .text	0000021c altera_avalon_jtag_uart_read
00002564 g     F .text	00000014 malloc
00002f5c g     F .text	00000030 _printf_r
00002388 g     F .text	00000064 .hidden __udivsi3
00019ba4 g     F .text	000000ac isatty
00009d34 g     F .text	00000030 iswspace
0001e0f4 g     O .rodata	000000c8 __mprec_tens
00009de0 g     F .text	0000000c __locale_charset
00016d64 g     F .text	000000c8 .hidden __lesf2
00015ffc g     F .text	00000074 .hidden __fixunsdfsi
00021c94 g     O .bss	00000004 __malloc_top_pad
0000e63c g     F .text	00000070 __ssrefill_r
0000e1f8 g     F .text	0000001c strtoul
00020080 g     O .rwdata	00000004 __mb_cur_max
00009e10 g     F .text	0000000c _localeconv_r
0000e214 g     F .text	00000320 _strtoull_r
0000aa1c g     F .text	0000003c __i2b
000096e4 g     F .text	000004c8 __sfvwrite_r
00003144 g     F .text	00000054 _sbrk_r
0000b808 g     F .text	00000060 _read_r
0002009c g     O .rwdata	00000004 alt_max_fd
00013760 g     F .text	000000f0 _fclose_r
00008ed0 g     F .text	00000030 fflush
00021c90 g     O .bss	00000004 __malloc_max_sbrked_mem
00003460 g     F .text	0000198c __ssvfscanf_r
00016e2c g     F .text	000008ac .hidden __adddf3
00016c30 g     F .text	00000078 .hidden __nesf2
0001ac74 g     F .text	00000078 alt_epcs_flash_erase_block
0000b22c g     F .text	0000010c __b2d
0001666c g     F .text	000005c4 .hidden __umoddi3
00019d78 g     F .text	000000dc lseek
0002006c g     O .rwdata	00000004 _global_impure_ptr
0001becc g     F .text	0000005c epcs_exit_4_bytes_mode
0000b868 g     F .text	00000564 _realloc_r
00021dec g       *ABS*	00000000 __bss_end
0001c474 g     F .text	000000f0 alt_iic_isr_register
0001c9e4 g     F .text	00000108 alt_tick
0001e27e g     O .rodata	00000100 __hexdig
00016070 g     F .text	000005fc .hidden __udivdi3
000139c8 g     F .text	00000024 _fputwc_r
0001e0cc g     O .rodata	00000028 __mprec_bigtens
0000a800 g     F .text	00000104 __s2b
000195c4 g     F .text	000000a8 .hidden __floatunsidf
0000af6c g     F .text	00000060 __mcmp
00009280 g     F .text	00000018 __fp_lock_all
0001c428 g     F .text	0000004c alt_ic_irq_enabled
0001c948 g     F .text	0000009c alt_alarm_stop
0000dc60 g     F .text	0000001c strtol
00021cb4 g     O .bss	00000004 alt_irq_active
000000fc g     F .exceptions	000000d4 alt_irq_handler
0001ed98 g     O .rwdata	00000028 alt_dev_null
0001c054 g     F .text	00000020 alt_dcache_flush_all
0000a904 g     F .text	00000068 __hi0bits
00019468 g     F .text	00000080 .hidden __fixdfsi
0000d8f0 g     F .text	00000018 strtod
000200bc g       *ABS*	00000000 __ram_rwdata_end
00020094 g     O .rwdata	00000008 alt_dev_list
0001a1c8 g     F .text	00000100 write
0000b6a0 g     F .text	000000a0 _putc_r
00016ca8 g     F .text	000000bc .hidden __gtsf2
0001e4f4 g       *ABS*	00000000 __ram_rodata_end
00019ab0 g     F .text	000000b8 fstat
0001820c g     F .text	000000f4 .hidden __ledf2
0000ace4 g     F .text	00000140 __pow5mult
00011f48 g     F .text	0000150c ___vfiprintf_internal_r
00021ca4 g     O .bss	00000004 __nlocale_changed
000023ec g     F .text	00000058 .hidden __umodsi3
0001bd88 g     F .text	00000068 epcs_read_electronic_signature
00021dec g       *ABS*	00000000 end
0001afe8 g     F .text	000000c0 altera_avalon_jtag_uart_init
000001d0 g     F .exceptions	00000060 alt_instruction_exception_entry
0001d28c g       *ABS*	00000000 __CTOR_LIST__
00800000 g       *ABS*	00000000 __alt_stack_pointer
00019814 g     F .text	00000064 .hidden __clzsi2
0001b6c8 g     F .text	00000224 altera_avalon_jtag_uart_write
00009270 g     F .text	00000004 __sfp_lock_acquire
0000a280 g     F .text	000000e4 memchr
00004dec g     F .text	000022dc ___vfprintf_internal_r
0000c108 g     F .text	00000058 _sprintf_r
000093d4 g     F .text	00000310 _free_r
00009dec g     F .text	00000010 __locale_mb_cur_max
0001d0d8 g     F .text	00000180 __call_exitprocs
000030bc g     F .text	00000074 __srget_r
0000e534 g     F .text	00000108 _sungetc_r
00021ca0 g     O .bss	00000004 __mlocale_changed
00020074 g     O .rwdata	00000004 __malloc_sbrk_base
00000230 g     F .text	0000003c _start
00021cb8 g     O .bss	00000004 _alt_tick_rate
0000dc7c g     F .text	00000304 _strtoll_r
0000ae24 g     F .text	00000148 __lshift
0001cb10 g     F .text	000001fc alt_avalon_spi_command
00021cbc g     O .bss	00000004 _alt_nticks
00019f54 g     F .text	00000104 read
0001a334 g     F .text	00000054 alt_sys_init
00014798 g     F .text	000001d0 __ssprint_r
0001cfc0 g     F .text	00000118 __register_exitproc
000146c8 g     F .text	000000d0 strncmp
0000aa58 g     F .text	0000028c __multiply
0001b354 g     F .text	00000068 altera_avalon_jtag_uart_close
00002444 g     F .text	00000028 .hidden __mulsi3
0001e4f4 g       *ABS*	00000000 __ram_rwdata_start
0001d28c g       *ABS*	00000000 __ram_rodata_start
00021cc4 g     O .bss	00000028 __malloc_current_mallinfo
00016c30 g     F .text	00000078 .hidden __eqsf2
0000b338 g     F .text	0000014c __d2b
0001b8ec g     F .text	0000005c epcs_read_status_register
0001ae84 g     F .text	00000060 altera_avalon_jtag_uart_read_fd
0000df80 g     F .text	00000278 _strtoul_r
0001ce14 g     F .text	000000c4 alt_get_fd
00007354 g     F .text	00000054 _close_r
0001bdf0 g     F .text	00000080 epcs_read_device_id
00002d98 g     F .text	0000007c memcmp
0001af44 g     F .text	00000050 altera_avalon_jtag_uart_close_fd
00021dec g       *ABS*	00000000 __alt_stack_base
0001af94 g     F .text	00000054 altera_avalon_jtag_uart_ioctl_fd
00801000 g       *ABS*	00000000 __alt_mem_epcs_flash_controller_0
00003198 g     F .text	0000007c sscanf
00007200 g     F .text	00000154 __swsetup_r
000176d8 g     F .text	000009d0 .hidden __divdf3
00009130 g     F .text	00000118 __sfp
0000b59c g     F .text	00000078 __copybits
0001e918 g     O .rwdata	00000408 __malloc_av_
0000927c g     F .text	00000004 __sinit_lock_release
00018300 g     F .text	0000086c .hidden __muldf3
0000328c g     F .text	00000054 __sread
0001cd0c g     F .text	00000108 alt_find_file
0001c0b0 g     F .text	000000a4 alt_dev_llist_insert
00019ed0 g     F .text	00000024 __malloc_lock
0001a0dc g     F .text	000000b0 sbrk
0000f8f8 g     F .text	000022bc ___svfprintf_internal_r
00008e74 g     F .text	0000005c _fflush_r
00013684 g     F .text	000000dc _calloc_r
000200a4 g     O .rwdata	00000008 alt_flash_dev_list
00021c84 g       *ABS*	00000000 __bss_start
0000a4c0 g     F .text	00000128 memset
00002240 g     F .text	00000050 main
00021cb0 g     O .bss	00000004 alt_envp
00021c8c g     O .bss	00000004 __malloc_max_total_mem
0001aee4 g     F .text	00000060 altera_avalon_jtag_uart_write_fd
0001366c g     F .text	00000018 __swbuf
00016d64 g     F .text	000000c8 .hidden __ltsf2
000033c0 g     F .text	00000008 __sclose
00800000 g       *ABS*	00000000 __alt_heap_limit
00013850 g     F .text	00000014 fclose
0000da08 g     F .text	00000258 _strtol_r
0001966c g     F .text	000001a8 .hidden __truncdfsf2
000075d0 g     F .text	00001688 _dtoa_r
0000258c g     F .text	0000080c _malloc_r
00015e64 g     F .text	00000030 __ascii_wctomb
000200a0 g     O .rwdata	00000004 alt_errno
00011bb4 g     F .text	000000d4 __submore
00009bac g     F .text	000000c4 _fwalk
0000a224 g     F .text	0000005c _mbtowc_r
0000b740 g     F .text	000000c8 putc
00002290 g     F .text	00000084 .hidden __divsi3
000092b0 g     F .text	00000124 _malloc_trim_r
0001d28c g       *ABS*	00000000 __CTOR_END__
0001a8f4 g     F .text	00000260 alt_epcs_flash_write
0000c1cc g     F .text	000000dc strcmp
0001d28c g       *ABS*	00000000 __flash_rodata_start
0001d28c g       *ABS*	00000000 __DTOR_LIST__
000180a8 g     F .text	00000088 .hidden __nedf2
0001a2fc g     F .text	00000038 alt_irq_init
0001a058 g     F .text	00000084 alt_release_fd
0000c160 g     F .text	0000006c sprintf
0001e39e g     O .rodata	00000100 .hidden __clz_tab
00021c9c g     O .bss	00000004 _PathLocale
0000d908 g     F .text	00000100 strtof
0001cf74 g     F .text	00000014 atexit
00016ca8 g     F .text	000000bc .hidden __gesf2
000071a0 g     F .text	00000060 _write_r
00009e1c g     F .text	00000018 setlocale
0000c100 g     F .text	00000008 nanf
00020070 g     O .rwdata	00000004 _impure_ptr
00021ca8 g     O .bss	00000004 alt_argc
00008c58 g     F .text	0000021c __sflush_r
0000a05c g     F .text	000000ac _mbrtowc_r
0001c1b4 g     F .text	00000060 _do_dtors
00009e08 g     F .text	00000008 __locale_cjk_lang
0000bde8 g     F .text	000001d4 __srefill_r
00000020 g       .exceptions	00000000 alt_irq_entry
0000a1e0 g     F .text	00000044 __ascii_mbtowc
0000b1c8 g     F .text	00000064 __ulp
00009298 g     F .text	00000018 __fp_unlock_all
0002008c g     O .rwdata	00000008 alt_fs_list
0000e7ac g     F .text	0000114c __ssvfiscanf_r
00000020 g       *ABS*	00000000 __ram_exceptions_start
00009e34 g     F .text	0000000c localeconv
0001bab8 g     F .text	000000f4 epcs_read_buffer
00000000 g       *ABS*	00000000 __alt_mem_new_sdram_controller_0
0001a3bc g     F .text	00000054 alt_epcs_flash_init
0001c2c4 g     F .text	00000050 alt_ic_isr_register
00003214 g     F .text	00000078 _sscanf_r
000200bc g       *ABS*	00000000 _edata
00021dec g       *ABS*	00000000 _end
000199b8 g     F .text	00000068 alt_flash_open_dev
00013864 g     F .text	00000164 __fputwc
00000230 g       *ABS*	00000000 __ram_exceptions_end
0001b3bc g     F .text	000000f0 altera_avalon_jtag_uart_ioctl
0001c39c g     F .text	0000008c alt_ic_irq_disable
0001be70 g     F .text	0000005c epcs_enter_4_bytes_mode
000032e8 g     F .text	0000007c __swrite
00020078 g     O .rwdata	00000004 __malloc_trim_threshold
00009dfc g     F .text	0000000c __locale_msgcharset
0001cf88 g     F .text	00000038 exit
00009c70 g     F .text	000000c4 _fwalk_reent
0000afcc g     F .text	000001fc __mdiff
00019a20 g     F .text	00000054 alt_flash_close_dev
00002314 g     F .text	00000074 .hidden __modsi3
0002007c g     O .rwdata	00000004 __ctype_ptr__
00800000 g       *ABS*	00000000 __alt_data_end
00000020 g     F .exceptions	00000000 alt_exception
00009274 g     F .text	00000004 __sfp_lock_release
0000c030 g     F .text	000000d0 __sccl
0001ddfa g     O .rodata	00000101 _ctype_
00020084 g     O .rwdata	00000004 __mbtowc
0001d258 g     F .text	00000034 _exit
0001bf28 g     F .text	0000012c alt_alarm_start
00015ef0 g     F .text	0000010c .hidden __muldi3
00009ea0 g     F .text	000001bc __smakebuf_r
000033c8 g     F .text	00000098 strlen
0001bbac g     F .text	00000054 epcs_write_enable
0001c7ec g     F .text	0000015c open
00018130 g     F .text	000000dc .hidden __gedf2
00013bc8 g     F .text	00000850 __gethex
00020088 g     O .rwdata	00000004 __wctomb
00011f30 g     F .text	00000018 __sprint_r
0001c2a4 g     F .text	00000020 alt_icache_flush_all
000200b0 g     O .rwdata	00000004 alt_priority_mask
0001c314 g     F .text	00000088 alt_ic_irq_enable
000070c8 g     F .text	0000001c __vfprintf_internal
00015e94 g     F .text	0000005c _wctomb_r
00018b6c g     F .text	000008fc .hidden __subdf3
0001adec g     F .text	00000098 alt_epcs_flash_read
0000a96c g     F .text	000000b0 __lo0bits
000200b4 g     O .rwdata	00000008 alt_alarm_list
00011c88 g     F .text	00000194 _ungetc_r
0001c154 g     F .text	00000060 _do_ctors
00015da4 g     F .text	000000c0 wcrtomb
000198b4 g     F .text	000000d8 close
00019cb8 g     F .text	00000084 alt_load
000139ec g     F .text	00000080 fputwc
00002578 g     F .text	00000014 free
00009278 g     F .text	00000004 __sinit_lock_acquire
0001bc6c g     F .text	0000011c epcs_write_buffer
0000a6b8 g     F .text	00000148 __multadd
0000a690 g     F .text	00000028 _Bfree



Disassembly of section .entry:

00000000 <__reset>:
 * Jump to the _start entry point in the .text section if reset code
 * is allowed or if optimizing for RTL simulation.
 */
#if defined(ALT_ALLOW_CODE_AT_RESET) || defined(ALT_SIM_OPTIMIZE)
    /* Jump to the _start entry point in the .text section. */
    movhi r1, %hi(_start)
   0:	00400034 	movhi	at,0
    ori r1, r1, %lo(_start)
   4:	08408c14 	ori	at,at,560
    jmp r1
   8:	0800683a 	jmp	at
	...

Disassembly of section .exceptions:

00000020 <alt_exception>:

#else /* ALT_EXCEPTION_STACK disabled */
        /* 
         * Reserve space on normal stack for registers about to be pushed.
         */
        addi  sp, sp, -76
  20:	deffed04 	addi	sp,sp,-76
         * documentation for details).
         *
         * Leave a gap in the stack frame at 4(sp) for the muldiv handler to
         * store zero into.
         */
        stw   ra,  0(sp)
  24:	dfc00015 	stw	ra,0(sp)
        stw   r1,   8(sp)
  28:	d8400215 	stw	at,8(sp)
        stw   r2,  12(sp)
  2c:	d8800315 	stw	r2,12(sp)
        stw   r3,  16(sp)
  30:	d8c00415 	stw	r3,16(sp)
        stw   r4,  20(sp)
  34:	d9000515 	stw	r4,20(sp)
        stw   r5,  24(sp)
  38:	d9400615 	stw	r5,24(sp)
        stw   r6,  28(sp)
  3c:	d9800715 	stw	r6,28(sp)
        stw   r7,  32(sp)
  40:	d9c00815 	stw	r7,32(sp)
        rdctl r5, estatus   /* Read early to avoid usage stall */
  44:	000b307a 	rdctl	r5,estatus
        stw   r8,  36(sp)
  48:	da000915 	stw	r8,36(sp)
        stw   r9,  40(sp)
  4c:	da400a15 	stw	r9,40(sp)
        stw   r10, 44(sp)
  50:	da800b15 	stw	r10,44(sp)
        stw   r11, 48(sp)
  54:	dac00c15 	stw	r11,48(sp)
        stw   r12, 52(sp)
  58:	db000d15 	stw	r12,52(sp)
        stw   r13, 56(sp)
  5c:	db400e15 	stw	r13,56(sp)
        stw   r14, 60(sp)
  60:	db800f15 	stw	r14,60(sp)
        stw   r15, 64(sp)
  64:	dbc01015 	stw	r15,64(sp)
        /*
         * ea-4 contains the address of the instruction being executed
         * when the exception occured. For interrupt exceptions, we will
         * will be re-issue the isntruction. Store it in 72(sp)
         */
        stw   r5,  68(sp)  /* estatus */
  68:	d9401115 	stw	r5,68(sp)
        addi  r15, ea, -4  /* instruction that caused exception */
  6c:	ebffff04 	addi	r15,ea,-4
        stw   r15,  72(sp)
  70:	dbc01215 	stw	r15,72(sp)
#else
        /*
         * Test to see if the exception was a software exception or caused 
         * by an external interrupt, and vector accordingly.
         */
        rdctl r4, ipending
  74:	0009313a 	rdctl	r4,ipending
        andi  r2, r5, 1
  78:	2880004c 	andi	r2,r5,1
        beq   r2, zero, .Lnot_irq
  7c:	10000326 	beq	r2,zero,8c <alt_exception+0x6c>
        beq   r4, zero, .Lnot_irq
  80:	20000226 	beq	r4,zero,8c <alt_exception+0x6c>
        /*
         * Now that all necessary registers have been preserved, call 
         * alt_irq_handler() to process the interrupts.
         */

        call alt_irq_handler
  84:	00000fc0 	call	fc <alt_irq_handler>

        .section .exceptions.irqreturn, "xa"

        br    .Lexception_exit
  88:	00000706 	br	a8 <alt_exception+0x88>
         * upon completion, so we write ea (address of instruction *after*
         * the one where the exception occured) into 72(sp). The actual
         * instruction that caused the exception is written in r2, which these
         * handlers will utilize.
         */
        stw ea, 72(sp) /* EA is PC+4 so will skip over instruction causing exception */
  8c:	df401215 	stw	ea,72(sp)
.Lunknown_16bit:
        addi.n r4, r4, 2 /* Need PC+2 to skip over instruction causing exception */
        stw r4, 72(sp)

#else /* CDX is not Enabled and all instructions are 32bits */
        ldw r2, -4(ea) /* Instruction value that caused exception */
  90:	e8bfff17 	ldw	r2,-4(ea)
         * debugger is present) or go into an infinite loop since the
         * handling behavior is undefined; in that case we will not return here.
         */

        /* Load exception-causing address as first argument (r4) */
        addi   r4, ea, -4
  94:	e93fff04 	addi	r4,ea,-4

        /* Call the instruction-exception entry */
        call   alt_instruction_exception_entry
  98:	00001d00 	call	1d0 <alt_instruction_exception_entry>
         * instruction
         *
         * Return code was 0: Skip. The instruction after the exception is
         * already stored in 72(sp).
         */
        bne   r2, r0, .Lexception_exit
  9c:	1000021e 	bne	r2,zero,a8 <alt_exception+0x88>

        /*
         * Otherwise, modify 72(sp) to re-issue the instruction that caused the
         * exception.
         */
        addi  r15, ea, -4  /* instruction that caused exception */
  a0:	ebffff04 	addi	r15,ea,-4
        stw   r15,  72(sp)
  a4:	dbc01215 	stw	r15,72(sp)
        /* 
         * Restore the saved registers, so that all general purpose registers 
         * have been restored to their state at the time the interrupt occured.
         */

        ldw   r5,  68(sp)
  a8:	d9401117 	ldw	r5,68(sp)
        ldw   ea,  72(sp)  /* This becomes the PC once eret is executed */
  ac:	df401217 	ldw	ea,72(sp)
        ldw   ra,   0(sp)
  b0:	dfc00017 	ldw	ra,0(sp)

        wrctl estatus, r5
  b4:	2801707a 	wrctl	estatus,r5

        ldw   r1,   8(sp)
  b8:	d8400217 	ldw	at,8(sp)
        ldw   r2,  12(sp)
  bc:	d8800317 	ldw	r2,12(sp)
        ldw   r3,  16(sp)
  c0:	d8c00417 	ldw	r3,16(sp)
        ldw   r4,  20(sp)
  c4:	d9000517 	ldw	r4,20(sp)
        ldw   r5,  24(sp)
  c8:	d9400617 	ldw	r5,24(sp)
        ldw   r6,  28(sp)
  cc:	d9800717 	ldw	r6,28(sp)
        ldw   r7,  32(sp)
  d0:	d9c00817 	ldw	r7,32(sp)

#if defined(ALT_EXCEPTION_STACK) && defined(ALT_STACK_CHECK)
        ldw   et, %gprel(alt_exception_old_stack_limit)(gp)
#endif

        ldw   r8,  36(sp)
  d4:	da000917 	ldw	r8,36(sp)
        ldw   r9,  40(sp)
  d8:	da400a17 	ldw	r9,40(sp)
        ldw   r10, 44(sp)
  dc:	da800b17 	ldw	r10,44(sp)
        ldw   r11, 48(sp)
  e0:	dac00c17 	ldw	r11,48(sp)
        ldw   r12, 52(sp)
  e4:	db000d17 	ldw	r12,52(sp)
        ldw   r13, 56(sp)
  e8:	db400e17 	ldw	r13,56(sp)
        ldw   r14, 60(sp)
  ec:	db800f17 	ldw	r14,60(sp)
        ldw   r15, 64(sp)
  f0:	dbc01017 	ldw	r15,64(sp)
        stw   et, %gprel(alt_stack_limit_value)(gp)
        stw   zero, %gprel(alt_exception_old_stack_limit)(gp)
#endif /* ALT_STACK_CHECK */
        ldw   sp,  76(sp)
#else /* ALT_EXCEPTION_STACK disabled */
        addi  sp, sp, 76
  f4:	dec01304 	addi	sp,sp,76

        /*
         * Return to the interrupted instruction.
         */

        eret
  f8:	ef80083a 	eret

000000fc <alt_irq_handler>:
 * instruction is present if the macro ALT_CI_INTERRUPT_VECTOR defined.
 */

void alt_irq_handler (void) __attribute__ ((section (".exceptions")));
void alt_irq_handler (void)
{
  fc:	defff904 	addi	sp,sp,-28
 100:	dfc00615 	stw	ra,24(sp)
 104:	df000515 	stw	fp,20(sp)
 108:	df000504 	addi	fp,sp,20
  
  /*
   * Notify the operating system that we are at interrupt level.
   */ 
  
  ALT_OS_INT_ENTER();
 10c:	0001883a 	nop
#ifndef NIOS2_EIC_PRESENT
static ALT_INLINE alt_u32 ALT_ALWAYS_INLINE alt_irq_pending (void)
{
  alt_u32 active;

  NIOS2_READ_IPENDING (active);
 110:	0005313a 	rdctl	r2,ipending
 114:	e0bffe15 	stw	r2,-8(fp)

  return active;
 118:	e0bffe17 	ldw	r2,-8(fp)
   * Consider the case where the high priority interupt is asserted during
   * the interrupt entry sequence for a lower priority interrupt to see why
   * this is the case.
   */

  active = alt_irq_pending ();
 11c:	e0bffb15 	stw	r2,-20(fp)

  do
  {
    i = 0;
 120:	e03ffd15 	stw	zero,-12(fp)
    mask = 1;
 124:	00800044 	movi	r2,1
 128:	e0bffc15 	stw	r2,-16(fp)
     * called to clear the interrupt condition.
     */

    do
    {
      if (active & mask)
 12c:	e0fffb17 	ldw	r3,-20(fp)
 130:	e0bffc17 	ldw	r2,-16(fp)
 134:	1884703a 	and	r2,r3,r2
 138:	10001426 	beq	r2,zero,18c <alt_irq_handler+0x90>
      { 
#ifdef ALT_ENHANCED_INTERRUPT_API_PRESENT
        alt_irq[i].handler(alt_irq[i].context); 
 13c:	008000b4 	movhi	r2,2
 140:	10873b04 	addi	r2,r2,7404
 144:	e0fffd17 	ldw	r3,-12(fp)
 148:	180690fa 	slli	r3,r3,3
 14c:	10c5883a 	add	r2,r2,r3
 150:	10c00017 	ldw	r3,0(r2)
 154:	008000b4 	movhi	r2,2
 158:	10873b04 	addi	r2,r2,7404
 15c:	e13ffd17 	ldw	r4,-12(fp)
 160:	200890fa 	slli	r4,r4,3
 164:	1105883a 	add	r2,r2,r4
 168:	10800104 	addi	r2,r2,4
 16c:	10800017 	ldw	r2,0(r2)
 170:	1009883a 	mov	r4,r2
 174:	183ee83a 	callr	r3
#else
        alt_irq[i].handler(alt_irq[i].context, i); 
#endif
        break;
 178:	0001883a 	nop
#ifndef NIOS2_EIC_PRESENT
static ALT_INLINE alt_u32 ALT_ALWAYS_INLINE alt_irq_pending (void)
{
  alt_u32 active;

  NIOS2_READ_IPENDING (active);
 17c:	0005313a 	rdctl	r2,ipending
 180:	e0bfff15 	stw	r2,-4(fp)

  return active;
 184:	e0bfff17 	ldw	r2,-4(fp)
 188:	00000706 	br	1a8 <alt_irq_handler+0xac>
      }
      mask <<= 1;
 18c:	e0bffc17 	ldw	r2,-16(fp)
 190:	1085883a 	add	r2,r2,r2
 194:	e0bffc15 	stw	r2,-16(fp)
      i++;
 198:	e0bffd17 	ldw	r2,-12(fp)
 19c:	10800044 	addi	r2,r2,1
 1a0:	e0bffd15 	stw	r2,-12(fp)

    } while (1);
 1a4:	003fe106 	br	12c <__alt_mem_epcs_flash_controller_0+0xff7ff12c>

    active = alt_irq_pending ();
 1a8:	e0bffb15 	stw	r2,-20(fp)
    
  } while (active);
 1ac:	e0bffb17 	ldw	r2,-20(fp)
 1b0:	103fdb1e 	bne	r2,zero,120 <__alt_mem_epcs_flash_controller_0+0xff7ff120>

  /*
   * Notify the operating system that interrupt processing is complete.
   */ 

  ALT_OS_INT_EXIT();
 1b4:	0001883a 	nop
}
 1b8:	0001883a 	nop
 1bc:	e037883a 	mov	sp,fp
 1c0:	dfc00117 	ldw	ra,4(sp)
 1c4:	df000017 	ldw	fp,0(sp)
 1c8:	dec00204 	addi	sp,sp,8
 1cc:	f800283a 	ret

000001d0 <alt_instruction_exception_entry>:
 * that handler if it has been registered. Absent a handler, it will
 * break break or hang as discussed below.
 */
int 
alt_instruction_exception_entry (alt_u32 exception_pc)
{
 1d0:	defffb04 	addi	sp,sp,-20
 1d4:	dfc00415 	stw	ra,16(sp)
 1d8:	df000315 	stw	fp,12(sp)
 1dc:	df000304 	addi	fp,sp,12
 1e0:	e13fff15 	stw	r4,-4(fp)
  cause = ( (cause & NIOS2_EXCEPTION_REG_CAUSE_MASK) >>
              NIOS2_EXCEPTION_REG_CAUSE_OFST );

  NIOS2_READ_BADADDR(badaddr);
#else
  cause = NIOS2_EXCEPTION_CAUSE_NOT_PRESENT;
 1e4:	00bfffc4 	movi	r2,-1
 1e8:	e0bffd15 	stw	r2,-12(fp)
  badaddr = 0;
 1ec:	e03ffe15 	stw	zero,-8(fp)
#endif /* NIOS2_HAS_EXTRA_EXCEPTION_INFO */

  if(alt_instruction_exception_handler) {
 1f0:	d0a71517 	ldw	r2,-25516(gp)
 1f4:	10000726 	beq	r2,zero,214 <alt_instruction_exception_entry+0x44>
     * Call handler. Its return value indicates whether the exception-causing
     * instruction should be re-issued. The code that called us,
     * alt_eceptions_entry.S, will look at this value and adjust the ea
     * register as necessary
     */
    return alt_instruction_exception_handler(cause, exception_pc, badaddr);
 1f8:	d0a71517 	ldw	r2,-25516(gp)
 1fc:	e0fffd17 	ldw	r3,-12(fp)
 200:	e1bffe17 	ldw	r6,-8(fp)
 204:	e17fff17 	ldw	r5,-4(fp)
 208:	1809883a 	mov	r4,r3
 20c:	103ee83a 	callr	r2
 210:	00000206 	br	21c <alt_instruction_exception_entry+0x4c>
   *    (a peripheral which negates its interrupt output before its
   *    interrupt handler has been executed will cause spurious interrupts)
   */
  else {
#ifdef NIOS2_HAS_DEBUG_STUB
    NIOS2_BREAK();
 214:	003da03a 	break	0
      ;
#endif /* NIOS2_HAS_DEBUG_STUB */
  }

  /* We should not get here. Remove compiler warning. */
  return NIOS2_EXCEPTION_RETURN_REISSUE_INST;
 218:	0005883a 	mov	r2,zero
}
 21c:	e037883a 	mov	sp,fp
 220:	dfc00117 	ldw	ra,4(sp)
 224:	df000017 	ldw	fp,0(sp)
 228:	dec00204 	addi	sp,sp,8
 22c:	f800283a 	ret

Disassembly of section .text:

00000230 <_start>:

    /*
     * Now that the caches are initialized, set up the stack pointer and global pointer.
     * The values provided by the linker are assumed to be correctly aligned.
     */
    movhi sp, %hi(__alt_stack_pointer)
     230:	06c02034 	movhi	sp,128
    ori sp, sp, %lo(__alt_stack_pointer)
     234:	dec00014 	ori	sp,sp,0
    movhi gp, %hi(_gp)
     238:	068000b4 	movhi	gp,2
    ori gp, gp, %lo(_gp)
     23c:	d6a01b14 	ori	gp,gp,32876
 */
#ifndef ALT_SIM_OPTIMIZE
    /* Log that the BSS is about to be cleared. */
    ALT_LOG_PUTS(alt_log_msg_bss)

    movhi r2, %hi(__bss_start)
     240:	008000b4 	movhi	r2,2
    ori r2, r2, %lo(__bss_start)
     244:	10872114 	ori	r2,r2,7300

    movhi r3, %hi(__bss_end)
     248:	00c000b4 	movhi	r3,2
    ori r3, r3, %lo(__bss_end)
     24c:	18c77b14 	ori	r3,r3,7660

    beq r2, r3, 1f
     250:	10c00326 	beq	r2,r3,260 <_start+0x30>

0:
    stw zero, (r2)
     254:	10000015 	stw	zero,0(r2)
    addi r2, r2, 4
     258:	10800104 	addi	r2,r2,4
    bltu r2, r3, 0b
     25c:	10fffd36 	bltu	r2,r3,254 <__alt_mem_epcs_flash_controller_0+0xff7ff254>
     * section aren't defined until alt_load() has been called).
     */
    mov   et, zero
#endif

    call alt_load
     260:	0019cb80 	call	19cb8 <alt_load>

    /* Log that alt_main is about to be called. */
    ALT_LOG_PUTS(alt_log_msg_alt_main)

    /* Call the C entry point. It should never return. */
    call alt_main
     264:	0019e540 	call	19e54 <alt_main>

00000268 <alt_after_alt_main>:

    /* Wait in infinite loop in case alt_main does return. */
alt_after_alt_main:
    br alt_after_alt_main
     268:	003fff06 	br	268 <__alt_mem_epcs_flash_controller_0+0xff7ff268>

0000026c <MenuHeader>:
*
*  Purpose: Prints the menu header.
*
******************************************************************/
static void MenuHeader(void)
{
     26c:	defffe04 	addi	sp,sp,-8
     270:	dfc00115 	stw	ra,4(sp)
     274:	df000015 	stw	fp,0(sp)
     278:	d839883a 	mov	fp,sp
  printf("\n\n");
     27c:	010000b4 	movhi	r4,2
     280:	2134a304 	addi	r4,r4,-11636
     284:	00030a80 	call	30a8 <puts>
  printf("             <---->   Nios II Memory Test.   <---->\n");
     288:	010000b4 	movhi	r4,2
     28c:	2134a404 	addi	r4,r4,-11632
     290:	00030a80 	call	30a8 <puts>
  printf("This software example tests the memory in your system to assure it\n");
     294:	010000b4 	movhi	r4,2
     298:	2134b104 	addi	r4,r4,-11580
     29c:	00030a80 	call	30a8 <puts>
  printf("is working properly.  This test is destructive to the contents of\n");
     2a0:	010000b4 	movhi	r4,2
     2a4:	2134c204 	addi	r4,r4,-11512
     2a8:	00030a80 	call	30a8 <puts>
  printf("the memory it tests. Assure the memory being tested does not contain\n");
     2ac:	010000b4 	movhi	r4,2
     2b0:	2134d304 	addi	r4,r4,-11444
     2b4:	00030a80 	call	30a8 <puts>
  printf("the executable or data sections of this code or the exception address\n");
     2b8:	010000b4 	movhi	r4,2
     2bc:	2134e504 	addi	r4,r4,-11372
     2c0:	00030a80 	call	30a8 <puts>
  printf("of the system.\n");
     2c4:	010000b4 	movhi	r4,2
     2c8:	2134f704 	addi	r4,r4,-11300
     2cc:	00030a80 	call	30a8 <puts>
}
     2d0:	0001883a 	nop
     2d4:	e037883a 	mov	sp,fp
     2d8:	dfc00117 	ldw	ra,4(sp)
     2dc:	df000017 	ldw	fp,0(sp)
     2e0:	dec00204 	addi	sp,sp,8
     2e4:	f800283a 	ret

000002e8 <MenuBegin>:
*
*  Purpose: Prints the top portion of the menu.
*
******************************************************************/
static void MenuBegin( char *title )
{
     2e8:	defffd04 	addi	sp,sp,-12
     2ec:	dfc00215 	stw	ra,8(sp)
     2f0:	df000115 	stw	fp,4(sp)
     2f4:	df000104 	addi	fp,sp,4
     2f8:	e13fff15 	stw	r4,-4(fp)
  printf("\n\n");
     2fc:	010000b4 	movhi	r4,2
     300:	2134a304 	addi	r4,r4,-11636
     304:	00030a80 	call	30a8 <puts>
  printf("----------------------------------\n");
     308:	010000b4 	movhi	r4,2
     30c:	2134fb04 	addi	r4,r4,-11284
     310:	00030a80 	call	30a8 <puts>
  printf("%s\n",title);
     314:	e13fff17 	ldw	r4,-4(fp)
     318:	00030a80 	call	30a8 <puts>
  printf("----------------------------------\n");
     31c:	010000b4 	movhi	r4,2
     320:	2134fb04 	addi	r4,r4,-11284
     324:	00030a80 	call	30a8 <puts>
}
     328:	0001883a 	nop
     32c:	e037883a 	mov	sp,fp
     330:	dfc00117 	ldw	ra,4(sp)
     334:	df000017 	ldw	fp,0(sp)
     338:	dec00204 	addi	sp,sp,8
     33c:	f800283a 	ret

00000340 <MenuItem>:
*  Purpose: Prints selection items in the menu, enumerated by the 
*           specified letter.
*
******************************************************************/
static void MenuItem( char letter, char *name )
{
     340:	defffc04 	addi	sp,sp,-16
     344:	dfc00315 	stw	ra,12(sp)
     348:	df000215 	stw	fp,8(sp)
     34c:	df000204 	addi	fp,sp,8
     350:	2005883a 	mov	r2,r4
     354:	e17fff15 	stw	r5,-4(fp)
     358:	e0bffe05 	stb	r2,-8(fp)
  printf("     %c:  %s\n" ,letter, name);
     35c:	e0bffe07 	ldb	r2,-8(fp)
     360:	e1bfff17 	ldw	r6,-4(fp)
     364:	100b883a 	mov	r5,r2
     368:	010000b4 	movhi	r4,2
     36c:	21350404 	addi	r4,r4,-11248
     370:	0002f8c0 	call	2f8c <printf>
}
     374:	0001883a 	nop
     378:	e037883a 	mov	sp,fp
     37c:	dfc00117 	ldw	ra,4(sp)
     380:	df000017 	ldw	fp,0(sp)
     384:	dec00204 	addi	sp,sp,8
     388:	f800283a 	ret

0000038c <GetInputString>:
*           returns the string, minus any '\r' characters it 
*           encounters.
*
******************************************************************/
void GetInputString( char* entry, int size, FILE * stream )
{
     38c:	defff904 	addi	sp,sp,-28
     390:	dfc00615 	stw	ra,24(sp)
     394:	df000515 	stw	fp,20(sp)
     398:	df000504 	addi	fp,sp,20
     39c:	e13ffd15 	stw	r4,-12(fp)
     3a0:	e17ffe15 	stw	r5,-8(fp)
     3a4:	e1bfff15 	stw	r6,-4(fp)
  int i;
  int ch = 0;
     3a8:	e03ffc15 	stw	zero,-16(fp)
  
  for(i = 0; (ch != '\n') && (i < size); )
     3ac:	e03ffb15 	stw	zero,-20(fp)
     3b0:	00000e06 	br	3ec <GetInputString+0x60>
  {
    if( (ch = getc(stream)) != '\r')
     3b4:	e13fff17 	ldw	r4,-4(fp)
     3b8:	00024dc0 	call	24dc <getc>
     3bc:	e0bffc15 	stw	r2,-16(fp)
     3c0:	e0bffc17 	ldw	r2,-16(fp)
     3c4:	10800360 	cmpeqi	r2,r2,13
     3c8:	1000081e 	bne	r2,zero,3ec <GetInputString+0x60>
    {
      entry[i] = ch;
     3cc:	e0bffb17 	ldw	r2,-20(fp)
     3d0:	e0fffd17 	ldw	r3,-12(fp)
     3d4:	1885883a 	add	r2,r3,r2
     3d8:	e0fffc17 	ldw	r3,-16(fp)
     3dc:	10c00005 	stb	r3,0(r2)
      i++;
     3e0:	e0bffb17 	ldw	r2,-20(fp)
     3e4:	10800044 	addi	r2,r2,1
     3e8:	e0bffb15 	stw	r2,-20(fp)
void GetInputString( char* entry, int size, FILE * stream )
{
  int i;
  int ch = 0;
  
  for(i = 0; (ch != '\n') && (i < size); )
     3ec:	e0bffc17 	ldw	r2,-16(fp)
     3f0:	108002a0 	cmpeqi	r2,r2,10
     3f4:	1000031e 	bne	r2,zero,404 <GetInputString+0x78>
     3f8:	e0fffb17 	ldw	r3,-20(fp)
     3fc:	e0bffe17 	ldw	r2,-8(fp)
     400:	18bfec16 	blt	r3,r2,3b4 <__alt_mem_epcs_flash_controller_0+0xff7ff3b4>
    {
      entry[i] = ch;
      i++;
    }
  }
}
     404:	0001883a 	nop
     408:	e037883a 	mov	sp,fp
     40c:	dfc00117 	ldw	ra,4(sp)
     410:	df000017 	ldw	fp,0(sp)
     414:	dec00204 	addi	sp,sp,8
     418:	f800283a 	ret

0000041c <MenuEnd>:
*  Purpose: Prints the end of the menu, then captures and returns
*           the user's selection.
*
******************************************************************/
static int MenuEnd( char lowLetter, char highLetter )
{
     41c:	defffc04 	addi	sp,sp,-16
     420:	dfc00315 	stw	ra,12(sp)
     424:	df000215 	stw	fp,8(sp)
     428:	df000204 	addi	fp,sp,8
     42c:	2007883a 	mov	r3,r4
     430:	2805883a 	mov	r2,r5
     434:	e0fffe05 	stb	r3,-8(fp)
     438:	e0bfff05 	stb	r2,-4(fp)
  static char entry[4];
  static char ch;

  printf("     q:  Exit\n");
     43c:	010000b4 	movhi	r4,2
     440:	21350804 	addi	r4,r4,-11232
     444:	00030a80 	call	30a8 <puts>
  printf("----------------------------------\n");
     448:	010000b4 	movhi	r4,2
     44c:	2134fb04 	addi	r4,r4,-11284
     450:	00030a80 	call	30a8 <puts>
  printf("\nSelect Choice (%c-%c): [Followed by <enter>]",lowLetter,highLetter);
     454:	e0bffe07 	ldb	r2,-8(fp)
     458:	e0ffff07 	ldb	r3,-4(fp)
     45c:	180d883a 	mov	r6,r3
     460:	100b883a 	mov	r5,r2
     464:	010000b4 	movhi	r4,2
     468:	21350c04 	addi	r4,r4,-11216
     46c:	0002f8c0 	call	2f8c <printf>

  GetInputString( entry, sizeof(entry), stdin );
     470:	d0a00117 	ldw	r2,-32764(gp)
     474:	10800117 	ldw	r2,4(r2)
     478:	100d883a 	mov	r6,r2
     47c:	01400104 	movi	r5,4
     480:	d1270604 	addi	r4,gp,-25576
     484:	000038c0 	call	38c <GetInputString>
  if(sscanf(entry, "%c\n", &ch))
     488:	d1a70704 	addi	r6,gp,-25572
     48c:	014000b4 	movhi	r5,2
     490:	29751804 	addi	r5,r5,-11168
     494:	d1270604 	addi	r4,gp,-25576
     498:	00031980 	call	3198 <sscanf>
     49c:	10001726 	beq	r2,zero,4fc <MenuEnd+0xe0>
  {
    if( ch >= 'A' && ch <= 'Z' )
     4a0:	d0a70703 	ldbu	r2,-25572(gp)
     4a4:	10803fcc 	andi	r2,r2,255
     4a8:	1080201c 	xori	r2,r2,128
     4ac:	10bfe004 	addi	r2,r2,-128
     4b0:	10801050 	cmplti	r2,r2,65
     4b4:	1000091e 	bne	r2,zero,4dc <MenuEnd+0xc0>
     4b8:	d0a70703 	ldbu	r2,-25572(gp)
     4bc:	10803fcc 	andi	r2,r2,255
     4c0:	1080201c 	xori	r2,r2,128
     4c4:	10bfe004 	addi	r2,r2,-128
     4c8:	108016c8 	cmpgei	r2,r2,91
     4cc:	1000031e 	bne	r2,zero,4dc <MenuEnd+0xc0>
      ch += 'a' - 'A';
     4d0:	d0a70703 	ldbu	r2,-25572(gp)
     4d4:	10800804 	addi	r2,r2,32
     4d8:	d0a70705 	stb	r2,-25572(gp)
    if( ch == 27 )
     4dc:	d0a70703 	ldbu	r2,-25572(gp)
     4e0:	10803fcc 	andi	r2,r2,255
     4e4:	1080201c 	xori	r2,r2,128
     4e8:	10bfe004 	addi	r2,r2,-128
     4ec:	108006d8 	cmpnei	r2,r2,27
     4f0:	1000021e 	bne	r2,zero,4fc <MenuEnd+0xe0>
      ch = 'q';
     4f4:	00801c44 	movi	r2,113
     4f8:	d0a70705 	stb	r2,-25572(gp)
  }
  return ch;
     4fc:	d0a70703 	ldbu	r2,-25572(gp)
     500:	10803fcc 	andi	r2,r2,255
     504:	1080201c 	xori	r2,r2,128
     508:	10bfe004 	addi	r2,r2,-128
}
     50c:	e037883a 	mov	sp,fp
     510:	dfc00117 	ldw	ra,4(sp)
     514:	df000017 	ldw	fp,0(sp)
     518:	dec00204 	addi	sp,sp,8
     51c:	f800283a 	ret

00000520 <MemGetAddressRange>:
*
*  Purpose: Gathers a range of memory from the user.
*
******************************************************************/
static int MemGetAddressRange(int* base_address, int* end_address)
{
     520:	defff904 	addi	sp,sp,-28
     524:	dfc00615 	stw	ra,24(sp)
     528:	df000515 	stw	fp,20(sp)
     52c:	df000504 	addi	fp,sp,20
     530:	e13ffe15 	stw	r4,-8(fp)
     534:	e17fff15 	stw	r5,-4(fp)
  char line[12];

  while(1)
  {
    /* Get the base address */
    printf("Base address to start memory test: (i.e. 0x800000)\n");
     538:	010000b4 	movhi	r4,2
     53c:	21351904 	addi	r4,r4,-11164
     540:	00030a80 	call	30a8 <puts>
    printf(">");
     544:	01000f84 	movi	r4,62
     548:	0002fd00 	call	2fd0 <putchar>

    GetInputString( line, sizeof(line), stdin );
     54c:	d0a00117 	ldw	r2,-32764(gp)
     550:	10800117 	ldw	r2,4(r2)
     554:	100d883a 	mov	r6,r2
     558:	01400304 	movi	r5,12
     55c:	e13ffb04 	addi	r4,fp,-20
     560:	000038c0 	call	38c <GetInputString>
   
    /* Check the format to make sure it was entered as hex */
    if(sscanf(line, "0x%X", base_address) != 1)
     564:	e1bffe17 	ldw	r6,-8(fp)
     568:	014000b4 	movhi	r5,2
     56c:	29752604 	addi	r5,r5,-11112
     570:	e13ffb04 	addi	r4,fp,-20
     574:	00031980 	call	3198 <sscanf>
     578:	10800060 	cmpeqi	r2,r2,1
     57c:	1000061e 	bne	r2,zero,598 <MemGetAddressRange+0x78>
    {
      printf("%s\n", line);
     580:	e13ffb04 	addi	r4,fp,-20
     584:	00030a80 	call	30a8 <puts>
      printf(" -ERROR: Invalid base address entered.  Address must be in the form '0x800000'\n\n");
     588:	010000b4 	movhi	r4,2
     58c:	21352804 	addi	r4,r4,-11104
     590:	00030a80 	call	30a8 <puts>
      continue;
     594:	00001f06 	br	614 <MemGetAddressRange+0xf4>
    }
    
    /* Get the end address */
    printf("End Address:\n");
     598:	010000b4 	movhi	r4,2
     59c:	21353c04 	addi	r4,r4,-11024
     5a0:	00030a80 	call	30a8 <puts>
    printf(">");
     5a4:	01000f84 	movi	r4,62
     5a8:	0002fd00 	call	2fd0 <putchar>

    GetInputString( line, sizeof(line), stdin );
     5ac:	d0a00117 	ldw	r2,-32764(gp)
     5b0:	10800117 	ldw	r2,4(r2)
     5b4:	100d883a 	mov	r6,r2
     5b8:	01400304 	movi	r5,12
     5bc:	e13ffb04 	addi	r4,fp,-20
     5c0:	000038c0 	call	38c <GetInputString>
    
    /* Check the format to make sure it was entered as hex */
    if(sscanf(line, "0x%X", end_address) != 1)
     5c4:	e1bfff17 	ldw	r6,-4(fp)
     5c8:	014000b4 	movhi	r5,2
     5cc:	29752604 	addi	r5,r5,-11112
     5d0:	e13ffb04 	addi	r4,fp,-20
     5d4:	00031980 	call	3198 <sscanf>
     5d8:	10800060 	cmpeqi	r2,r2,1
     5dc:	1000041e 	bne	r2,zero,5f0 <MemGetAddressRange+0xd0>
    {
      printf(" -ERROR: Invalid end address entered.  Address must be in the form '0x8FFFFF'\n\n");
     5e0:	010000b4 	movhi	r4,2
     5e4:	21354004 	addi	r4,r4,-11008
     5e8:	00030a80 	call	30a8 <puts>
      continue;
     5ec:	00000906 	br	614 <MemGetAddressRange+0xf4>
    }
    
    /* Make sure end address is greater than base address. */
    if (*end_address <= *base_address)
     5f0:	e0bfff17 	ldw	r2,-4(fp)
     5f4:	10800017 	ldw	r2,0(r2)
     5f8:	e0fffe17 	ldw	r3,-8(fp)
     5fc:	18c00017 	ldw	r3,0(r3)
     600:	18800516 	blt	r3,r2,618 <MemGetAddressRange+0xf8>
    {
      printf(" -ERROR: End address must be greater than the start address\n\n");
     604:	010000b4 	movhi	r4,2
     608:	21355404 	addi	r4,r4,-10928
     60c:	00030a80 	call	30a8 <puts>

      continue;
     610:	0001883a 	nop
    }
    break;
  }
     614:	003fc806 	br	538 <__alt_mem_epcs_flash_controller_0+0xff7ff538>
    {
      printf(" -ERROR: End address must be greater than the start address\n\n");

      continue;
    }
    break;
     618:	0001883a 	nop
  }

  return(0);
     61c:	0005883a 	mov	r2,zero
}
     620:	e037883a 	mov	sp,fp
     624:	dfc00117 	ldw	ra,4(sp)
     628:	df000017 	ldw	fp,0(sp)
     62c:	dec00204 	addi	sp,sp,8
     630:	f800283a 	ret

00000634 <MemTestDataBus>:
*  Purpose: Tests that the data bus is connected with no 
*           stuck-at's, shorts, or open circuits.
*
******************************************************************/
static int MemTestDataBus(unsigned int address)
{
     634:	defffc04 	addi	sp,sp,-16
     638:	df000315 	stw	fp,12(sp)
     63c:	df000304 	addi	fp,sp,12
     640:	e13fff15 	stw	r4,-4(fp)
  unsigned int pattern;
  unsigned int ret_code = 0x0;
     644:	e03ffe15 	stw	zero,-8(fp)

  /* Perform a walking 1's test at the given address. */
  for (pattern = 1; pattern != 0; pattern <<= 1)
     648:	00800044 	movi	r2,1
     64c:	e0bffd15 	stw	r2,-12(fp)
     650:	00000e06 	br	68c <MemTestDataBus+0x58>
  {
    /* Write the test pattern. */
    IOWR_32DIRECT(address, 0, pattern);
     654:	e0bfff17 	ldw	r2,-4(fp)
     658:	e0fffd17 	ldw	r3,-12(fp)
     65c:	10c00035 	stwio	r3,0(r2)

    /* Read it back (immediately is okay for this test). */
    if (IORD_32DIRECT(address, 0) != pattern)
     660:	e0bfff17 	ldw	r2,-4(fp)
     664:	10800037 	ldwio	r2,0(r2)
     668:	1007883a 	mov	r3,r2
     66c:	e0bffd17 	ldw	r2,-12(fp)
     670:	18800326 	beq	r3,r2,680 <MemTestDataBus+0x4c>
    {
      ret_code = pattern;
     674:	e0bffd17 	ldw	r2,-12(fp)
     678:	e0bffe15 	stw	r2,-8(fp)
      break;
     67c:	00000506 	br	694 <MemTestDataBus+0x60>
{
  unsigned int pattern;
  unsigned int ret_code = 0x0;

  /* Perform a walking 1's test at the given address. */
  for (pattern = 1; pattern != 0; pattern <<= 1)
     680:	e0bffd17 	ldw	r2,-12(fp)
     684:	1085883a 	add	r2,r2,r2
     688:	e0bffd15 	stw	r2,-12(fp)
     68c:	e0bffd17 	ldw	r2,-12(fp)
     690:	103ff01e 	bne	r2,zero,654 <__alt_mem_epcs_flash_controller_0+0xff7ff654>
    {
      ret_code = pattern;
      break;
    }
  }
  return ret_code;
     694:	e0bffe17 	ldw	r2,-8(fp)
}
     698:	e037883a 	mov	sp,fp
     69c:	df000017 	ldw	fp,0(sp)
     6a0:	dec00104 	addi	sp,sp,4
     6a4:	f800283a 	ret

000006a8 <MemTestAddressBus>:
*  Purpose: Tests that the address bus is connected with no 
*           stuck-at's, shorts, or open circuits.
*
******************************************************************/
static int MemTestAddressBus(unsigned int memory_base, unsigned int nBytes)
{
     6a8:	defff704 	addi	sp,sp,-36
     6ac:	df000815 	stw	fp,32(sp)
     6b0:	df000804 	addi	fp,sp,32
     6b4:	e13ffe15 	stw	r4,-8(fp)
     6b8:	e17fff15 	stw	r5,-4(fp)
  unsigned int address_mask = (nBytes - 1);
     6bc:	e0bfff17 	ldw	r2,-4(fp)
     6c0:	10bfffc4 	addi	r2,r2,-1
     6c4:	e0bffb15 	stw	r2,-20(fp)
  unsigned int offset;
  unsigned int test_offset;

  unsigned int pattern     = 0xAAAAAAAA;
     6c8:	00aaaaf4 	movhi	r2,43691
     6cc:	10aaaa84 	addi	r2,r2,-21846
     6d0:	e0bffc15 	stw	r2,-16(fp)
  unsigned int antipattern  = 0x55555555;
     6d4:	00955574 	movhi	r2,21845
     6d8:	10955544 	addi	r2,r2,21845
     6dc:	e0bffd15 	stw	r2,-12(fp)

  unsigned int ret_code = 0x0;
     6e0:	e03ffa15 	stw	zero,-24(fp)

  /* Write the default pattern at each of the power-of-two offsets. */
  for (offset = sizeof(unsigned int); (offset & address_mask) != 0; offset <<= 1)
     6e4:	00800104 	movi	r2,4
     6e8:	e0bff815 	stw	r2,-32(fp)
     6ec:	00000906 	br	714 <MemTestAddressBus+0x6c>
  {
    IOWR_32DIRECT(memory_base, offset, pattern);
     6f0:	e0fff817 	ldw	r3,-32(fp)
     6f4:	e0bffe17 	ldw	r2,-8(fp)
     6f8:	1885883a 	add	r2,r3,r2
     6fc:	1007883a 	mov	r3,r2
     700:	e0bffc17 	ldw	r2,-16(fp)
     704:	18800035 	stwio	r2,0(r3)
  unsigned int antipattern  = 0x55555555;

  unsigned int ret_code = 0x0;

  /* Write the default pattern at each of the power-of-two offsets. */
  for (offset = sizeof(unsigned int); (offset & address_mask) != 0; offset <<= 1)
     708:	e0bff817 	ldw	r2,-32(fp)
     70c:	1085883a 	add	r2,r2,r2
     710:	e0bff815 	stw	r2,-32(fp)
     714:	e0fff817 	ldw	r3,-32(fp)
     718:	e0bffb17 	ldw	r2,-20(fp)
     71c:	1884703a 	and	r2,r3,r2
     720:	103ff31e 	bne	r2,zero,6f0 <__alt_mem_epcs_flash_controller_0+0xff7ff6f0>
  {
    IOWR_32DIRECT(memory_base, offset, pattern);
  }

  /* Check for address bits stuck high. */
  test_offset = 0;
     724:	e03ff915 	stw	zero,-28(fp)
  IOWR_32DIRECT(memory_base, test_offset, antipattern);
     728:	e0fff917 	ldw	r3,-28(fp)
     72c:	e0bffe17 	ldw	r2,-8(fp)
     730:	1885883a 	add	r2,r3,r2
     734:	1007883a 	mov	r3,r2
     738:	e0bffd17 	ldw	r2,-12(fp)
     73c:	18800035 	stwio	r2,0(r3)
  for (offset = sizeof(unsigned int); (offset & address_mask) != 0; offset <<= 1)
     740:	00800104 	movi	r2,4
     744:	e0bff815 	stw	r2,-32(fp)
     748:	00000f06 	br	788 <MemTestAddressBus+0xe0>
  {
     if (IORD_32DIRECT(memory_base, offset) != pattern)
     74c:	e0fff817 	ldw	r3,-32(fp)
     750:	e0bffe17 	ldw	r2,-8(fp)
     754:	1885883a 	add	r2,r3,r2
     758:	10800037 	ldwio	r2,0(r2)
     75c:	1007883a 	mov	r3,r2
     760:	e0bffc17 	ldw	r2,-16(fp)
     764:	18800526 	beq	r3,r2,77c <MemTestAddressBus+0xd4>
     {
        ret_code = (memory_base+offset);
     768:	e0fffe17 	ldw	r3,-8(fp)
     76c:	e0bff817 	ldw	r2,-32(fp)
     770:	1885883a 	add	r2,r3,r2
     774:	e0bffa15 	stw	r2,-24(fp)
        break;
     778:	00000706 	br	798 <MemTestAddressBus+0xf0>
  }

  /* Check for address bits stuck high. */
  test_offset = 0;
  IOWR_32DIRECT(memory_base, test_offset, antipattern);
  for (offset = sizeof(unsigned int); (offset & address_mask) != 0; offset <<= 1)
     77c:	e0bff817 	ldw	r2,-32(fp)
     780:	1085883a 	add	r2,r2,r2
     784:	e0bff815 	stw	r2,-32(fp)
     788:	e0fff817 	ldw	r3,-32(fp)
     78c:	e0bffb17 	ldw	r2,-20(fp)
     790:	1884703a 	and	r2,r3,r2
     794:	103fed1e 	bne	r2,zero,74c <__alt_mem_epcs_flash_controller_0+0xff7ff74c>
        break;
     }
  }

  /* Check for address bits stuck low or shorted. */
  IOWR_32DIRECT(memory_base, test_offset, pattern);
     798:	e0fff917 	ldw	r3,-28(fp)
     79c:	e0bffe17 	ldw	r2,-8(fp)
     7a0:	1885883a 	add	r2,r3,r2
     7a4:	1007883a 	mov	r3,r2
     7a8:	e0bffc17 	ldw	r2,-16(fp)
     7ac:	18800035 	stwio	r2,0(r3)
  for (test_offset = sizeof(unsigned int); (test_offset & address_mask) != 0; test_offset <<= 1)
     7b0:	00800104 	movi	r2,4
     7b4:	e0bff915 	stw	r2,-28(fp)
     7b8:	00002a06 	br	864 <MemTestAddressBus+0x1bc>
  {
    if (!ret_code)
     7bc:	e0bffa17 	ldw	r2,-24(fp)
     7c0:	1000251e 	bne	r2,zero,858 <MemTestAddressBus+0x1b0>
    {
      IOWR_32DIRECT(memory_base, test_offset, antipattern);
     7c4:	e0fff917 	ldw	r3,-28(fp)
     7c8:	e0bffe17 	ldw	r2,-8(fp)
     7cc:	1885883a 	add	r2,r3,r2
     7d0:	1007883a 	mov	r3,r2
     7d4:	e0bffd17 	ldw	r2,-12(fp)
     7d8:	18800035 	stwio	r2,0(r3)
      for (offset = sizeof(unsigned int); (offset & address_mask) != 0; offset <<= 1)
     7dc:	00800104 	movi	r2,4
     7e0:	e0bff815 	stw	r2,-32(fp)
     7e4:	00001206 	br	830 <MemTestAddressBus+0x188>
      {
        if ((IORD_32DIRECT(memory_base, offset) != pattern) && (offset != test_offset))
     7e8:	e0fff817 	ldw	r3,-32(fp)
     7ec:	e0bffe17 	ldw	r2,-8(fp)
     7f0:	1885883a 	add	r2,r3,r2
     7f4:	10800037 	ldwio	r2,0(r2)
     7f8:	1007883a 	mov	r3,r2
     7fc:	e0bffc17 	ldw	r2,-16(fp)
     800:	18800826 	beq	r3,r2,824 <MemTestAddressBus+0x17c>
     804:	e0fff817 	ldw	r3,-32(fp)
     808:	e0bff917 	ldw	r2,-28(fp)
     80c:	18800526 	beq	r3,r2,824 <MemTestAddressBus+0x17c>
        {
          ret_code = (memory_base + test_offset);
     810:	e0fffe17 	ldw	r3,-8(fp)
     814:	e0bff917 	ldw	r2,-28(fp)
     818:	1885883a 	add	r2,r3,r2
     81c:	e0bffa15 	stw	r2,-24(fp)
          break;
     820:	00000706 	br	840 <MemTestAddressBus+0x198>
  for (test_offset = sizeof(unsigned int); (test_offset & address_mask) != 0; test_offset <<= 1)
  {
    if (!ret_code)
    {
      IOWR_32DIRECT(memory_base, test_offset, antipattern);
      for (offset = sizeof(unsigned int); (offset & address_mask) != 0; offset <<= 1)
     824:	e0bff817 	ldw	r2,-32(fp)
     828:	1085883a 	add	r2,r2,r2
     82c:	e0bff815 	stw	r2,-32(fp)
     830:	e0fff817 	ldw	r3,-32(fp)
     834:	e0bffb17 	ldw	r2,-20(fp)
     838:	1884703a 	and	r2,r3,r2
     83c:	103fea1e 	bne	r2,zero,7e8 <__alt_mem_epcs_flash_controller_0+0xff7ff7e8>
        {
          ret_code = (memory_base + test_offset);
          break;
        }
      }
      IOWR_32DIRECT(memory_base, test_offset, pattern);
     840:	e0fff917 	ldw	r3,-28(fp)
     844:	e0bffe17 	ldw	r2,-8(fp)
     848:	1885883a 	add	r2,r3,r2
     84c:	1007883a 	mov	r3,r2
     850:	e0bffc17 	ldw	r2,-16(fp)
     854:	18800035 	stwio	r2,0(r3)
     }
  }

  /* Check for address bits stuck low or shorted. */
  IOWR_32DIRECT(memory_base, test_offset, pattern);
  for (test_offset = sizeof(unsigned int); (test_offset & address_mask) != 0; test_offset <<= 1)
     858:	e0bff917 	ldw	r2,-28(fp)
     85c:	1085883a 	add	r2,r2,r2
     860:	e0bff915 	stw	r2,-28(fp)
     864:	e0fff917 	ldw	r3,-28(fp)
     868:	e0bffb17 	ldw	r2,-20(fp)
     86c:	1884703a 	and	r2,r3,r2
     870:	103fd21e 	bne	r2,zero,7bc <__alt_mem_epcs_flash_controller_0+0xff7ff7bc>
      }
      IOWR_32DIRECT(memory_base, test_offset, pattern);
    }
  }

  return ret_code;
     874:	e0bffa17 	ldw	r2,-24(fp)
}
     878:	e037883a 	mov	sp,fp
     87c:	df000017 	ldw	fp,0(sp)
     880:	dec00104 	addi	sp,sp,4
     884:	f800283a 	ret

00000888 <MemTest8_16BitAccess>:
*           can be read and written in both byte and half-word 
*           modes.
*
******************************************************************/
static int MemTest8_16BitAccess(unsigned int memory_base)
{
     888:	defffd04 	addi	sp,sp,-12
     88c:	df000215 	stw	fp,8(sp)
     890:	df000204 	addi	fp,sp,8
     894:	e13fff15 	stw	r4,-4(fp)
  int ret_code = 0x0;
     898:	e03ffe15 	stw	zero,-8(fp)

  /* Write 4 bytes */
  IOWR_8DIRECT(memory_base, 0, 0x0A);
     89c:	e0bfff17 	ldw	r2,-4(fp)
     8a0:	00c00284 	movi	r3,10
     8a4:	10c00025 	stbio	r3,0(r2)
  IOWR_8DIRECT(memory_base, 1, 0x05);
     8a8:	e0bfff17 	ldw	r2,-4(fp)
     8ac:	10800044 	addi	r2,r2,1
     8b0:	1007883a 	mov	r3,r2
     8b4:	00800144 	movi	r2,5
     8b8:	18800025 	stbio	r2,0(r3)
  IOWR_8DIRECT(memory_base, 2, 0xA0);
     8bc:	e0bfff17 	ldw	r2,-4(fp)
     8c0:	10800084 	addi	r2,r2,2
     8c4:	1007883a 	mov	r3,r2
     8c8:	00bfe804 	movi	r2,-96
     8cc:	18800025 	stbio	r2,0(r3)
  IOWR_8DIRECT(memory_base, 3, 0x50);
     8d0:	e0bfff17 	ldw	r2,-4(fp)
     8d4:	108000c4 	addi	r2,r2,3
     8d8:	1007883a 	mov	r3,r2
     8dc:	00801404 	movi	r2,80
     8e0:	18800025 	stbio	r2,0(r3)

  /* Read it back as one word */
  if(IORD_32DIRECT(memory_base, 0) != 0x50A0050A)
     8e4:	e0bfff17 	ldw	r2,-4(fp)
     8e8:	10c00037 	ldwio	r3,0(r2)
     8ec:	00942834 	movhi	r2,20640
     8f0:	10814284 	addi	r2,r2,1290
     8f4:	18800226 	beq	r3,r2,900 <MemTest8_16BitAccess+0x78>
  {
    ret_code = memory_base;
     8f8:	e0bfff17 	ldw	r2,-4(fp)
     8fc:	e0bffe15 	stw	r2,-8(fp)
  }

  /* Read it back as two half-words */
  if (!ret_code)
     900:	e0bffe17 	ldw	r2,-8(fp)
     904:	10000d1e 	bne	r2,zero,93c <MemTest8_16BitAccess+0xb4>
  {
    if ((IORD_16DIRECT(memory_base, 2) != 0x50A0) ||
     908:	e0bfff17 	ldw	r2,-4(fp)
     90c:	10800084 	addi	r2,r2,2
     910:	1080002b 	ldhuio	r2,0(r2)
     914:	10bfffcc 	andi	r2,r2,65535
     918:	10942818 	cmpnei	r2,r2,20640
     91c:	1000051e 	bne	r2,zero,934 <MemTest8_16BitAccess+0xac>
        (IORD_16DIRECT(memory_base, 0) != 0x050A))
     920:	e0bfff17 	ldw	r2,-4(fp)
     924:	1080002b 	ldhuio	r2,0(r2)
     928:	10bfffcc 	andi	r2,r2,65535
  }

  /* Read it back as two half-words */
  if (!ret_code)
  {
    if ((IORD_16DIRECT(memory_base, 2) != 0x50A0) ||
     92c:	108142a0 	cmpeqi	r2,r2,1290
     930:	1000021e 	bne	r2,zero,93c <MemTest8_16BitAccess+0xb4>
        (IORD_16DIRECT(memory_base, 0) != 0x050A))
    {
      ret_code = memory_base;
     934:	e0bfff17 	ldw	r2,-4(fp)
     938:	e0bffe15 	stw	r2,-8(fp)
    }
  }

  /* Read it back as 4 bytes */
  if (!ret_code)
     93c:	e0bffe17 	ldw	r2,-8(fp)
     940:	1000191e 	bne	r2,zero,9a8 <MemTest8_16BitAccess+0x120>
  {
    if ((IORD_8DIRECT(memory_base, 3) != 0x50) ||
     944:	e0bfff17 	ldw	r2,-4(fp)
     948:	108000c4 	addi	r2,r2,3
     94c:	10800023 	ldbuio	r2,0(r2)
     950:	10803fcc 	andi	r2,r2,255
     954:	10801418 	cmpnei	r2,r2,80
     958:	1000111e 	bne	r2,zero,9a0 <MemTest8_16BitAccess+0x118>
        (IORD_8DIRECT(memory_base, 2) != 0xA0) ||
     95c:	e0bfff17 	ldw	r2,-4(fp)
     960:	10800084 	addi	r2,r2,2
     964:	10800023 	ldbuio	r2,0(r2)
     968:	10803fcc 	andi	r2,r2,255
  }

  /* Read it back as 4 bytes */
  if (!ret_code)
  {
    if ((IORD_8DIRECT(memory_base, 3) != 0x50) ||
     96c:	10802818 	cmpnei	r2,r2,160
     970:	10000b1e 	bne	r2,zero,9a0 <MemTest8_16BitAccess+0x118>
        (IORD_8DIRECT(memory_base, 2) != 0xA0) ||
        (IORD_8DIRECT(memory_base, 1) != 0x05) ||
     974:	e0bfff17 	ldw	r2,-4(fp)
     978:	10800044 	addi	r2,r2,1
     97c:	10800023 	ldbuio	r2,0(r2)
     980:	10803fcc 	andi	r2,r2,255

  /* Read it back as 4 bytes */
  if (!ret_code)
  {
    if ((IORD_8DIRECT(memory_base, 3) != 0x50) ||
        (IORD_8DIRECT(memory_base, 2) != 0xA0) ||
     984:	10800158 	cmpnei	r2,r2,5
     988:	1000051e 	bne	r2,zero,9a0 <MemTest8_16BitAccess+0x118>
        (IORD_8DIRECT(memory_base, 1) != 0x05) ||
        (IORD_8DIRECT(memory_base, 0) != 0x0A))
     98c:	e0bfff17 	ldw	r2,-4(fp)
     990:	10800023 	ldbuio	r2,0(r2)
     994:	10803fcc 	andi	r2,r2,255
  /* Read it back as 4 bytes */
  if (!ret_code)
  {
    if ((IORD_8DIRECT(memory_base, 3) != 0x50) ||
        (IORD_8DIRECT(memory_base, 2) != 0xA0) ||
        (IORD_8DIRECT(memory_base, 1) != 0x05) ||
     998:	108002a0 	cmpeqi	r2,r2,10
     99c:	1000021e 	bne	r2,zero,9a8 <MemTest8_16BitAccess+0x120>
        (IORD_8DIRECT(memory_base, 0) != 0x0A))
    {
    ret_code = memory_base;
     9a0:	e0bfff17 	ldw	r2,-4(fp)
     9a4:	e0bffe15 	stw	r2,-8(fp)
    }
  }

  /* Write 2 half-words */
  if (!ret_code)
     9a8:	e0bffe17 	ldw	r2,-8(fp)
     9ac:	10000f1e 	bne	r2,zero,9ec <MemTest8_16BitAccess+0x164>
  {
    IOWR_16DIRECT(memory_base, 0, 0x50A0);
     9b0:	e0bfff17 	ldw	r2,-4(fp)
     9b4:	00d42804 	movi	r3,20640
     9b8:	10c0002d 	sthio	r3,0(r2)
    IOWR_16DIRECT(memory_base, 2, 0x050A);
     9bc:	e0bfff17 	ldw	r2,-4(fp)
     9c0:	10800084 	addi	r2,r2,2
     9c4:	1007883a 	mov	r3,r2
     9c8:	00814284 	movi	r2,1290
     9cc:	1880002d 	sthio	r2,0(r3)

    /* Read it back as one word */
    if(IORD_32DIRECT(memory_base, 0) != 0x050A50A0)
     9d0:	e0bfff17 	ldw	r2,-4(fp)
     9d4:	10c00037 	ldwio	r3,0(r2)
     9d8:	008142b4 	movhi	r2,1290
     9dc:	10942804 	addi	r2,r2,20640
     9e0:	18800226 	beq	r3,r2,9ec <MemTest8_16BitAccess+0x164>
    {
      ret_code = memory_base;
     9e4:	e0bfff17 	ldw	r2,-4(fp)
     9e8:	e0bffe15 	stw	r2,-8(fp)
    }
  }

  /* Read it back as two half-words */
  if (!ret_code)
     9ec:	e0bffe17 	ldw	r2,-8(fp)
     9f0:	10000d1e 	bne	r2,zero,a28 <MemTest8_16BitAccess+0x1a0>
  {
    if ((IORD_16DIRECT(memory_base, 2) != 0x050A) ||
     9f4:	e0bfff17 	ldw	r2,-4(fp)
     9f8:	10800084 	addi	r2,r2,2
     9fc:	1080002b 	ldhuio	r2,0(r2)
     a00:	10bfffcc 	andi	r2,r2,65535
     a04:	10814298 	cmpnei	r2,r2,1290
     a08:	1000051e 	bne	r2,zero,a20 <MemTest8_16BitAccess+0x198>
        (IORD_16DIRECT(memory_base, 0) != 0x50A0))
     a0c:	e0bfff17 	ldw	r2,-4(fp)
     a10:	1080002b 	ldhuio	r2,0(r2)
     a14:	10bfffcc 	andi	r2,r2,65535
  }

  /* Read it back as two half-words */
  if (!ret_code)
  {
    if ((IORD_16DIRECT(memory_base, 2) != 0x050A) ||
     a18:	10942820 	cmpeqi	r2,r2,20640
     a1c:	1000021e 	bne	r2,zero,a28 <MemTest8_16BitAccess+0x1a0>
        (IORD_16DIRECT(memory_base, 0) != 0x50A0))
    {
      ret_code = memory_base;
     a20:	e0bfff17 	ldw	r2,-4(fp)
     a24:	e0bffe15 	stw	r2,-8(fp)
    }
  }

  /* Read it back as 4 bytes */
  if (!ret_code)
     a28:	e0bffe17 	ldw	r2,-8(fp)
     a2c:	1000191e 	bne	r2,zero,a94 <MemTest8_16BitAccess+0x20c>
  {
    if ((IORD_8DIRECT(memory_base, 3) != 0x05) ||
     a30:	e0bfff17 	ldw	r2,-4(fp)
     a34:	108000c4 	addi	r2,r2,3
     a38:	10800023 	ldbuio	r2,0(r2)
     a3c:	10803fcc 	andi	r2,r2,255
     a40:	10800158 	cmpnei	r2,r2,5
     a44:	1000111e 	bne	r2,zero,a8c <MemTest8_16BitAccess+0x204>
        (IORD_8DIRECT(memory_base, 2) != 0x0A) ||
     a48:	e0bfff17 	ldw	r2,-4(fp)
     a4c:	10800084 	addi	r2,r2,2
     a50:	10800023 	ldbuio	r2,0(r2)
     a54:	10803fcc 	andi	r2,r2,255
  }

  /* Read it back as 4 bytes */
  if (!ret_code)
  {
    if ((IORD_8DIRECT(memory_base, 3) != 0x05) ||
     a58:	10800298 	cmpnei	r2,r2,10
     a5c:	10000b1e 	bne	r2,zero,a8c <MemTest8_16BitAccess+0x204>
        (IORD_8DIRECT(memory_base, 2) != 0x0A) ||
        (IORD_8DIRECT(memory_base, 1) != 0x50) ||
     a60:	e0bfff17 	ldw	r2,-4(fp)
     a64:	10800044 	addi	r2,r2,1
     a68:	10800023 	ldbuio	r2,0(r2)
     a6c:	10803fcc 	andi	r2,r2,255

  /* Read it back as 4 bytes */
  if (!ret_code)
  {
    if ((IORD_8DIRECT(memory_base, 3) != 0x05) ||
        (IORD_8DIRECT(memory_base, 2) != 0x0A) ||
     a70:	10801418 	cmpnei	r2,r2,80
     a74:	1000051e 	bne	r2,zero,a8c <MemTest8_16BitAccess+0x204>
        (IORD_8DIRECT(memory_base, 1) != 0x50) ||
        (IORD_8DIRECT(memory_base, 0) != 0xA0))
     a78:	e0bfff17 	ldw	r2,-4(fp)
     a7c:	10800023 	ldbuio	r2,0(r2)
     a80:	10803fcc 	andi	r2,r2,255
  /* Read it back as 4 bytes */
  if (!ret_code)
  {
    if ((IORD_8DIRECT(memory_base, 3) != 0x05) ||
        (IORD_8DIRECT(memory_base, 2) != 0x0A) ||
        (IORD_8DIRECT(memory_base, 1) != 0x50) ||
     a84:	10802820 	cmpeqi	r2,r2,160
     a88:	1000021e 	bne	r2,zero,a94 <MemTest8_16BitAccess+0x20c>
        (IORD_8DIRECT(memory_base, 0) != 0xA0))
    {
      ret_code = memory_base;
     a8c:	e0bfff17 	ldw	r2,-4(fp)
     a90:	e0bffe15 	stw	r2,-8(fp)
    }
  }

  return(ret_code);
     a94:	e0bffe17 	ldw	r2,-8(fp)
}
     a98:	e037883a 	mov	sp,fp
     a9c:	df000017 	ldw	fp,0(sp)
     aa0:	dec00104 	addi	sp,sp,4
     aa4:	f800283a 	ret

00000aa8 <MemTestDevice>:
*  Purpose: Tests that every bit in the memory device within the 
*           specified address range can store both a '1' and a '0'.
*
******************************************************************/
static int MemTestDevice(unsigned int memory_base, unsigned int nBytes)
{
     aa8:	defff804 	addi	sp,sp,-32
     aac:	dfc00715 	stw	ra,28(sp)
     ab0:	df000615 	stw	fp,24(sp)
     ab4:	df000604 	addi	fp,sp,24
     ab8:	e13ffe15 	stw	r4,-8(fp)
     abc:	e17fff15 	stw	r5,-4(fp)
  unsigned int offset;
  unsigned int pattern;
  unsigned int antipattern;
  unsigned int ret_code = 0x0;
     ac0:	e03ffc15 	stw	zero,-16(fp)

  /* Fill memory with a known pattern. */
  for (pattern = 1, offset = 0; offset < nBytes; pattern++, offset+=4)
     ac4:	00800044 	movi	r2,1
     ac8:	e0bffb15 	stw	r2,-20(fp)
     acc:	e03ffa15 	stw	zero,-24(fp)
     ad0:	00000c06 	br	b04 <MemTestDevice+0x5c>
  {
    IOWR_32DIRECT(memory_base, offset, pattern);
     ad4:	e0fffa17 	ldw	r3,-24(fp)
     ad8:	e0bffe17 	ldw	r2,-8(fp)
     adc:	1885883a 	add	r2,r3,r2
     ae0:	1007883a 	mov	r3,r2
     ae4:	e0bffb17 	ldw	r2,-20(fp)
     ae8:	18800035 	stwio	r2,0(r3)
  unsigned int pattern;
  unsigned int antipattern;
  unsigned int ret_code = 0x0;

  /* Fill memory with a known pattern. */
  for (pattern = 1, offset = 0; offset < nBytes; pattern++, offset+=4)
     aec:	e0bffb17 	ldw	r2,-20(fp)
     af0:	10800044 	addi	r2,r2,1
     af4:	e0bffb15 	stw	r2,-20(fp)
     af8:	e0bffa17 	ldw	r2,-24(fp)
     afc:	10800104 	addi	r2,r2,4
     b00:	e0bffa15 	stw	r2,-24(fp)
     b04:	e0fffa17 	ldw	r3,-24(fp)
     b08:	e0bfff17 	ldw	r2,-4(fp)
     b0c:	18bff136 	bltu	r3,r2,ad4 <__alt_mem_epcs_flash_controller_0+0xff7ffad4>
  {
    IOWR_32DIRECT(memory_base, offset, pattern);
  }

  printf(" .");
     b10:	010000b4 	movhi	r4,2
     b14:	21356404 	addi	r4,r4,-10864
     b18:	0002f8c0 	call	2f8c <printf>

  /* Check each location and invert it for the second pass. */
  for (pattern = 1, offset = 0; offset < nBytes; pattern++, offset+=4)
     b1c:	00800044 	movi	r2,1
     b20:	e0bffb15 	stw	r2,-20(fp)
     b24:	e03ffa15 	stw	zero,-24(fp)
     b28:	00001b06 	br	b98 <MemTestDevice+0xf0>
  {
    if (IORD_32DIRECT(memory_base, offset) != pattern)
     b2c:	e0fffa17 	ldw	r3,-24(fp)
     b30:	e0bffe17 	ldw	r2,-8(fp)
     b34:	1885883a 	add	r2,r3,r2
     b38:	10800037 	ldwio	r2,0(r2)
     b3c:	1007883a 	mov	r3,r2
     b40:	e0bffb17 	ldw	r2,-20(fp)
     b44:	18800526 	beq	r3,r2,b5c <MemTestDevice+0xb4>
    {
      ret_code = (memory_base + offset);
     b48:	e0fffe17 	ldw	r3,-8(fp)
     b4c:	e0bffa17 	ldw	r2,-24(fp)
     b50:	1885883a 	add	r2,r3,r2
     b54:	e0bffc15 	stw	r2,-16(fp)
      break;
     b58:	00001206 	br	ba4 <MemTestDevice+0xfc>
    }
    antipattern = ~pattern;
     b5c:	e0bffb17 	ldw	r2,-20(fp)
     b60:	0084303a 	nor	r2,zero,r2
     b64:	e0bffd15 	stw	r2,-12(fp)
    IOWR_32DIRECT(memory_base, offset, antipattern);
     b68:	e0fffa17 	ldw	r3,-24(fp)
     b6c:	e0bffe17 	ldw	r2,-8(fp)
     b70:	1885883a 	add	r2,r3,r2
     b74:	1007883a 	mov	r3,r2
     b78:	e0bffd17 	ldw	r2,-12(fp)
     b7c:	18800035 	stwio	r2,0(r3)
  }

  printf(" .");

  /* Check each location and invert it for the second pass. */
  for (pattern = 1, offset = 0; offset < nBytes; pattern++, offset+=4)
     b80:	e0bffb17 	ldw	r2,-20(fp)
     b84:	10800044 	addi	r2,r2,1
     b88:	e0bffb15 	stw	r2,-20(fp)
     b8c:	e0bffa17 	ldw	r2,-24(fp)
     b90:	10800104 	addi	r2,r2,4
     b94:	e0bffa15 	stw	r2,-24(fp)
     b98:	e0fffa17 	ldw	r3,-24(fp)
     b9c:	e0bfff17 	ldw	r2,-4(fp)
     ba0:	18bfe236 	bltu	r3,r2,b2c <__alt_mem_epcs_flash_controller_0+0xff7ffb2c>
    }
    antipattern = ~pattern;
    IOWR_32DIRECT(memory_base, offset, antipattern);
  }

  printf(" .");
     ba4:	010000b4 	movhi	r4,2
     ba8:	21356404 	addi	r4,r4,-10864
     bac:	0002f8c0 	call	2f8c <printf>

  /* Check each location for the inverted pattern and zero it. */
  for (pattern = 1, offset = 0; offset < nBytes; pattern++, offset+=4)
     bb0:	00800044 	movi	r2,1
     bb4:	e0bffb15 	stw	r2,-20(fp)
     bb8:	e03ffa15 	stw	zero,-24(fp)
     bbc:	00001a06 	br	c28 <MemTestDevice+0x180>
  {
    antipattern = ~pattern;
     bc0:	e0bffb17 	ldw	r2,-20(fp)
     bc4:	0084303a 	nor	r2,zero,r2
     bc8:	e0bffd15 	stw	r2,-12(fp)
    if (IORD_32DIRECT(memory_base, offset) != antipattern)
     bcc:	e0fffa17 	ldw	r3,-24(fp)
     bd0:	e0bffe17 	ldw	r2,-8(fp)
     bd4:	1885883a 	add	r2,r3,r2
     bd8:	10800037 	ldwio	r2,0(r2)
     bdc:	1007883a 	mov	r3,r2
     be0:	e0bffd17 	ldw	r2,-12(fp)
     be4:	18800526 	beq	r3,r2,bfc <MemTestDevice+0x154>
    {
      ret_code = (memory_base + offset);
     be8:	e0fffe17 	ldw	r3,-8(fp)
     bec:	e0bffa17 	ldw	r2,-24(fp)
     bf0:	1885883a 	add	r2,r3,r2
     bf4:	e0bffc15 	stw	r2,-16(fp)
      break;
     bf8:	00000e06 	br	c34 <MemTestDevice+0x18c>
    }
    IOWR_32DIRECT(memory_base, offset, 0x0);
     bfc:	e0fffa17 	ldw	r3,-24(fp)
     c00:	e0bffe17 	ldw	r2,-8(fp)
     c04:	1885883a 	add	r2,r3,r2
     c08:	0007883a 	mov	r3,zero
     c0c:	10c00035 	stwio	r3,0(r2)
  }

  printf(" .");

  /* Check each location for the inverted pattern and zero it. */
  for (pattern = 1, offset = 0; offset < nBytes; pattern++, offset+=4)
     c10:	e0bffb17 	ldw	r2,-20(fp)
     c14:	10800044 	addi	r2,r2,1
     c18:	e0bffb15 	stw	r2,-20(fp)
     c1c:	e0bffa17 	ldw	r2,-24(fp)
     c20:	10800104 	addi	r2,r2,4
     c24:	e0bffa15 	stw	r2,-24(fp)
     c28:	e0fffa17 	ldw	r3,-24(fp)
     c2c:	e0bfff17 	ldw	r2,-4(fp)
     c30:	18bfe336 	bltu	r3,r2,bc0 <__alt_mem_epcs_flash_controller_0+0xff7ffbc0>
      ret_code = (memory_base + offset);
      break;
    }
    IOWR_32DIRECT(memory_base, offset, 0x0);
  }
  return ret_code;
     c34:	e0bffc17 	ldw	r2,-16(fp)
}
     c38:	e037883a 	mov	sp,fp
     c3c:	dfc00117 	ldw	ra,4(sp)
     c40:	df000017 	ldw	fp,0(sp)
     c44:	dec00204 	addi	sp,sp,8
     c48:	f800283a 	ret

00000c4c <TestRam>:
*             - MemTestDevice
*             - MemDMATest
*
******************************************************************/
static void TestRam(void)
{
     c4c:	defffa04 	addi	sp,sp,-24
     c50:	dfc00515 	stw	ra,20(sp)
     c54:	df000415 	stw	fp,16(sp)
     c58:	df000404 	addi	fp,sp,16
  
  int memory_base, memory_end, memory_size;
  int ret_code = 0x0;
     c5c:	e03ffc15 	stw	zero,-16(fp)

  /* Find out what range of memory we are testing */
  MemGetAddressRange(&memory_base, &memory_end);
     c60:	e0ffff04 	addi	r3,fp,-4
     c64:	e0bffe04 	addi	r2,fp,-8
     c68:	180b883a 	mov	r5,r3
     c6c:	1009883a 	mov	r4,r2
     c70:	00005200 	call	520 <MemGetAddressRange>
  memory_size = (memory_end - memory_base);
     c74:	e0ffff17 	ldw	r3,-4(fp)
     c78:	e0bffe17 	ldw	r2,-8(fp)
     c7c:	1885c83a 	sub	r2,r3,r2
     c80:	e0bffd15 	stw	r2,-12(fp)

  printf("\n");
     c84:	01000284 	movi	r4,10
     c88:	0002fd00 	call	2fd0 <putchar>
  printf("Testing RAM from 0x%X to 0x%X\n", memory_base, (memory_base + memory_size));
     c8c:	e13ffe17 	ldw	r4,-8(fp)
     c90:	e0fffe17 	ldw	r3,-8(fp)
     c94:	e0bffd17 	ldw	r2,-12(fp)
     c98:	1885883a 	add	r2,r3,r2
     c9c:	100d883a 	mov	r6,r2
     ca0:	200b883a 	mov	r5,r4
     ca4:	010000b4 	movhi	r4,2
     ca8:	21356504 	addi	r4,r4,-10860
     cac:	0002f8c0 	call	2f8c <printf>

  /* Test Data Bus. */
  ret_code = MemTestDataBus(memory_base);
     cb0:	e0bffe17 	ldw	r2,-8(fp)
     cb4:	1009883a 	mov	r4,r2
     cb8:	00006340 	call	634 <MemTestDataBus>
     cbc:	e0bffc15 	stw	r2,-16(fp)

  if (ret_code)
     cc0:	e0bffc17 	ldw	r2,-16(fp)
     cc4:	10000526 	beq	r2,zero,cdc <TestRam+0x90>
   printf(" -Data bus test failed at bit 0x%X", (int)ret_code);
     cc8:	e17ffc17 	ldw	r5,-16(fp)
     ccc:	010000b4 	movhi	r4,2
     cd0:	21356d04 	addi	r4,r4,-10828
     cd4:	0002f8c0 	call	2f8c <printf>
     cd8:	00000306 	br	ce8 <TestRam+0x9c>
  else
    printf(" -Data bus test passed\n");
     cdc:	010000b4 	movhi	r4,2
     ce0:	21357604 	addi	r4,r4,-10792
     ce4:	00030a80 	call	30a8 <puts>

  /* Test Address Bus. */
  if (!ret_code)
     ce8:	e0bffc17 	ldw	r2,-16(fp)
     cec:	1000111e 	bne	r2,zero,d34 <TestRam+0xe8>
  {
    ret_code  = MemTestAddressBus(memory_base, memory_size);
     cf0:	e0bffe17 	ldw	r2,-8(fp)
     cf4:	1007883a 	mov	r3,r2
     cf8:	e0bffd17 	ldw	r2,-12(fp)
     cfc:	100b883a 	mov	r5,r2
     d00:	1809883a 	mov	r4,r3
     d04:	00006a80 	call	6a8 <MemTestAddressBus>
     d08:	e0bffc15 	stw	r2,-16(fp)
    if  (ret_code)
     d0c:	e0bffc17 	ldw	r2,-16(fp)
     d10:	10000526 	beq	r2,zero,d28 <TestRam+0xdc>
      printf(" -Address bus test failed at address 0x%X", (int)ret_code);
     d14:	e17ffc17 	ldw	r5,-16(fp)
     d18:	010000b4 	movhi	r4,2
     d1c:	21357c04 	addi	r4,r4,-10768
     d20:	0002f8c0 	call	2f8c <printf>
     d24:	00000306 	br	d34 <TestRam+0xe8>
    else
      printf(" -Address bus test passed\n");
     d28:	010000b4 	movhi	r4,2
     d2c:	21358704 	addi	r4,r4,-10724
     d30:	00030a80 	call	30a8 <puts>
  }

  /* Test byte and half-word access. */
  if (!ret_code)
     d34:	e0bffc17 	ldw	r2,-16(fp)
     d38:	10000e1e 	bne	r2,zero,d74 <TestRam+0x128>
  {
    ret_code = MemTest8_16BitAccess(memory_base);
     d3c:	e0bffe17 	ldw	r2,-8(fp)
     d40:	1009883a 	mov	r4,r2
     d44:	00008880 	call	888 <MemTest8_16BitAccess>
     d48:	e0bffc15 	stw	r2,-16(fp)
    if  (ret_code)
     d4c:	e0bffc17 	ldw	r2,-16(fp)
     d50:	10000526 	beq	r2,zero,d68 <TestRam+0x11c>
      printf(" -Byte and half-word access test failed at address 0x%X", (int)ret_code);
     d54:	e17ffc17 	ldw	r5,-16(fp)
     d58:	010000b4 	movhi	r4,2
     d5c:	21358e04 	addi	r4,r4,-10696
     d60:	0002f8c0 	call	2f8c <printf>
     d64:	00000306 	br	d74 <TestRam+0x128>
    else
      printf(" -Byte and half-word access test passed\n");
     d68:	010000b4 	movhi	r4,2
     d6c:	21359c04 	addi	r4,r4,-10640
     d70:	00030a80 	call	30a8 <puts>
  }

  /* Test that each bit in the device can store both 1 and 0. */
  if (!ret_code)
     d74:	e0bffc17 	ldw	r2,-16(fp)
     d78:	1000141e 	bne	r2,zero,dcc <TestRam+0x180>
  {
    printf(" -Testing each bit in memory device.");
     d7c:	010000b4 	movhi	r4,2
     d80:	2135a604 	addi	r4,r4,-10600
     d84:	0002f8c0 	call	2f8c <printf>
    ret_code = MemTestDevice(memory_base, memory_size);
     d88:	e0bffe17 	ldw	r2,-8(fp)
     d8c:	1007883a 	mov	r3,r2
     d90:	e0bffd17 	ldw	r2,-12(fp)
     d94:	100b883a 	mov	r5,r2
     d98:	1809883a 	mov	r4,r3
     d9c:	0000aa80 	call	aa8 <MemTestDevice>
     da0:	e0bffc15 	stw	r2,-16(fp)
    if  (ret_code)
     da4:	e0bffc17 	ldw	r2,-16(fp)
     da8:	10000526 	beq	r2,zero,dc0 <TestRam+0x174>
      printf("  failed at address 0x%X", (int)ret_code);
     dac:	e17ffc17 	ldw	r5,-16(fp)
     db0:	010000b4 	movhi	r4,2
     db4:	2135b004 	addi	r4,r4,-10560
     db8:	0002f8c0 	call	2f8c <printf>
     dbc:	00000306 	br	dcc <TestRam+0x180>
    else
      printf("  passed\n");
     dc0:	010000b4 	movhi	r4,2
     dc4:	2135b704 	addi	r4,r4,-10532
     dc8:	00030a80 	call	30a8 <puts>
    else
      printf("  passed\n");
  }
#endif /* DMA_NAME */
      
  if (!ret_code)
     dcc:	e0bffc17 	ldw	r2,-16(fp)
     dd0:	1000051e 	bne	r2,zero,de8 <TestRam+0x19c>
    printf("Memory at 0x%X Okay\n", memory_base);
     dd4:	e0bffe17 	ldw	r2,-8(fp)
     dd8:	100b883a 	mov	r5,r2
     ddc:	010000b4 	movhi	r4,2
     de0:	2135ba04 	addi	r4,r4,-10520
     de4:	0002f8c0 	call	2f8c <printf>
}
     de8:	0001883a 	nop
     dec:	e037883a 	mov	sp,fp
     df0:	dfc00117 	ldw	ra,4(sp)
     df4:	df000017 	ldw	fp,0(sp)
     df8:	dec00204 	addi	sp,sp,8
     dfc:	f800283a 	ret

00000e00 <FlashCheckIfBlockErased>:
*  Purpose: Checks the specified flash block to see if it is 
*           completely erased (all 0xFFFFFFFF).
*
******************************************************************/
static int FlashCheckIfBlockErased(alt_flash_fd* fd, int block, flash_region* regions)
{
     e00:	defff204 	addi	sp,sp,-56
     e04:	dfc00d15 	stw	ra,52(sp)
     e08:	df000c15 	stw	fp,48(sp)
     e0c:	df000c04 	addi	fp,sp,48
     e10:	e13ffd15 	stw	r4,-12(fp)
     e14:	e17ffe15 	stw	r5,-8(fp)
     e18:	e1bfff15 	stw	r6,-4(fp)
  int i, j;
  int ret_code = 0x0;
     e1c:	e03ff615 	stw	zero,-40(fp)
  char block_is_erased = 0x1;
     e20:	00800044 	movi	r2,1
     e24:	e0bff705 	stb	r2,-36(fp)
  alt_u8 *data_read;
 
  /* Get a buffer */
  data_read = malloc(64);
     e28:	01001004 	movi	r4,64
     e2c:	00025640 	call	2564 <malloc>
     e30:	e0bff815 	stw	r2,-32(fp)
  
  /* Initialize the flag */
  block_is_erased = 0x1;
     e34:	00800044 	movi	r2,1
     e38:	e0bff705 	stb	r2,-36(fp)

  for(i = 0; i < regions->block_size; i += 64)
     e3c:	e03ff415 	stw	zero,-48(fp)
     e40:	00002d06 	br	ef8 <FlashCheckIfBlockErased+0xf8>
  {
    ret_code = alt_read_flash(fd, ((block * regions->block_size) + i), data_read, 64);
     e44:	e0bfff17 	ldw	r2,-4(fp)
     e48:	10800317 	ldw	r2,12(r2)
     e4c:	e17ffe17 	ldw	r5,-8(fp)
     e50:	1009883a 	mov	r4,r2
     e54:	00024440 	call	2444 <__mulsi3>
     e58:	1007883a 	mov	r3,r2
     e5c:	e0bff417 	ldw	r2,-48(fp)
     e60:	1885883a 	add	r2,r3,r2
     e64:	e0fffd17 	ldw	r3,-12(fp)
     e68:	e0fff915 	stw	r3,-28(fp)
     e6c:	e0bffa15 	stw	r2,-24(fp)
     e70:	e0bff817 	ldw	r2,-32(fp)
     e74:	e0bffb15 	stw	r2,-20(fp)
     e78:	00801004 	movi	r2,64
     e7c:	e0bffc15 	stw	r2,-16(fp)
 */
static __inline__ int __attribute__ ((always_inline)) alt_read_flash( 
                                      alt_flash_fd* fd, int offset, 
                                      void* dest_addr, int length )
{
  return fd->read( fd, offset, dest_addr, length );
     e80:	e0bff917 	ldw	r2,-28(fp)
     e84:	10800617 	ldw	r2,24(r2)
     e88:	e1fffc17 	ldw	r7,-16(fp)
     e8c:	e1bffb17 	ldw	r6,-20(fp)
     e90:	e17ffa17 	ldw	r5,-24(fp)
     e94:	e13ff917 	ldw	r4,-28(fp)
     e98:	103ee83a 	callr	r2
     e9c:	e0bff615 	stw	r2,-40(fp)

    for(j=0; j < 64; j+=1)
     ea0:	e03ff515 	stw	zero,-44(fp)
     ea4:	00000c06 	br	ed8 <FlashCheckIfBlockErased+0xd8>
    {
      if(*(data_read+j) != 0xFF)
     ea8:	e0bff517 	ldw	r2,-44(fp)
     eac:	e0fff817 	ldw	r3,-32(fp)
     eb0:	1885883a 	add	r2,r3,r2
     eb4:	10800003 	ldbu	r2,0(r2)
     eb8:	10803fcc 	andi	r2,r2,255
     ebc:	10803fe0 	cmpeqi	r2,r2,255
     ec0:	1000021e 	bne	r2,zero,ecc <FlashCheckIfBlockErased+0xcc>
      {
        /* If this byte isn't erased, then neither is the block */
        block_is_erased = 0x0;
     ec4:	e03ff705 	stb	zero,-36(fp)
        break;
     ec8:	00000606 	br	ee4 <FlashCheckIfBlockErased+0xe4>

  for(i = 0; i < regions->block_size; i += 64)
  {
    ret_code = alt_read_flash(fd, ((block * regions->block_size) + i), data_read, 64);

    for(j=0; j < 64; j+=1)
     ecc:	e0bff517 	ldw	r2,-44(fp)
     ed0:	10800044 	addi	r2,r2,1
     ed4:	e0bff515 	stw	r2,-44(fp)
     ed8:	e0bff517 	ldw	r2,-44(fp)
     edc:	10801010 	cmplti	r2,r2,64
     ee0:	103ff11e 	bne	r2,zero,ea8 <__alt_mem_epcs_flash_controller_0+0xff7ffea8>
        /* If this byte isn't erased, then neither is the block */
        block_is_erased = 0x0;
        break;
      }
    }
    if (block_is_erased == 0x0)
     ee4:	e0bff707 	ldb	r2,-36(fp)
     ee8:	10000826 	beq	r2,zero,f0c <FlashCheckIfBlockErased+0x10c>
  data_read = malloc(64);
  
  /* Initialize the flag */
  block_is_erased = 0x1;

  for(i = 0; i < regions->block_size; i += 64)
     eec:	e0bff417 	ldw	r2,-48(fp)
     ef0:	10801004 	addi	r2,r2,64
     ef4:	e0bff415 	stw	r2,-48(fp)
     ef8:	e0bfff17 	ldw	r2,-4(fp)
     efc:	10800317 	ldw	r2,12(r2)
     f00:	e0fff417 	ldw	r3,-48(fp)
     f04:	18bfcf16 	blt	r3,r2,e44 <__alt_mem_epcs_flash_controller_0+0xff7ffe44>
     f08:	00000106 	br	f10 <FlashCheckIfBlockErased+0x110>
        block_is_erased = 0x0;
        break;
      }
    }
    if (block_is_erased == 0x0)
      break;
     f0c:	0001883a 	nop
  }
  /* Block is erased if we indexed through all block locations */
  if(i == regions->block_size)
     f10:	e0bfff17 	ldw	r2,-4(fp)
     f14:	10c00317 	ldw	r3,12(r2)
     f18:	e0bff417 	ldw	r2,-48(fp)
     f1c:	1880031e 	bne	r3,r2,f2c <FlashCheckIfBlockErased+0x12c>
    ret_code = 1;
     f20:	00800044 	movi	r2,1
     f24:	e0bff615 	stw	r2,-40(fp)
     f28:	00000106 	br	f30 <FlashCheckIfBlockErased+0x130>
  else
    ret_code = 0;
     f2c:	e03ff615 	stw	zero,-40(fp)
  
  free(data_read);
     f30:	e13ff817 	ldw	r4,-32(fp)
     f34:	00025780 	call	2578 <free>
 
  return ret_code;
     f38:	e0bff617 	ldw	r2,-40(fp)
}
     f3c:	e037883a 	mov	sp,fp
     f40:	dfc00117 	ldw	ra,4(sp)
     f44:	df000017 	ldw	fp,0(sp)
     f48:	dec00204 	addi	sp,sp,8
     f4c:	f800283a 	ret

00000f50 <FlashTestBlockWrite>:
*  Purpose: Tests that the function alt_write_flash_block is
*           is working properly.
*
******************************************************************/
static int FlashTestBlockWrite(int block, int *error, alt_flash_fd* fd, flash_region* regions)
{
     f50:	deffdb04 	addi	sp,sp,-148
     f54:	dfc02415 	stw	ra,144(sp)
     f58:	df002315 	stw	fp,140(sp)
     f5c:	dc002215 	stw	r16,136(sp)
     f60:	df002304 	addi	fp,sp,140
     f64:	e13ffb15 	stw	r4,-20(fp)
     f68:	e17ffc15 	stw	r5,-16(fp)
     f6c:	e1bffd15 	stw	r6,-12(fp)
     f70:	e1fffe15 	stw	r7,-8(fp)
  int i;
  int ret_code = 0x0;
     f74:	e03fdf15 	stw	zero,-132(fp)
  alt_u8 *data_written;
  alt_u8 *data_read;


  /* Get a couple buffers for the test */
  data_written = malloc(100);
     f78:	01001904 	movi	r4,100
     f7c:	00025640 	call	2564 <malloc>
     f80:	e0bfe015 	stw	r2,-128(fp)
  data_read = malloc(100);
     f84:	01001904 	movi	r4,100
     f88:	00025640 	call	2564 <malloc>
     f8c:	e0bfe115 	stw	r2,-124(fp)

  test_offset = (regions->offset + (block * regions->block_size));
     f90:	e0bffe17 	ldw	r2,-8(fp)
     f94:	14000017 	ldw	r16,0(r2)
     f98:	e0bffe17 	ldw	r2,-8(fp)
     f9c:	10800317 	ldw	r2,12(r2)
     fa0:	e17ffb17 	ldw	r5,-20(fp)
     fa4:	1009883a 	mov	r4,r2
     fa8:	00024440 	call	2444 <__mulsi3>
     fac:	8085883a 	add	r2,r16,r2
     fb0:	e0bfe215 	stw	r2,-120(fp)

  /* Fill write buffer with 100 values (incremented by 3) */
  for(i=0; i < 100; i++)
     fb4:	e03fde15 	stw	zero,-136(fp)
     fb8:	00000c06 	br	fec <FlashTestBlockWrite+0x9c>
    *(data_written + i) = (i * 3);
     fbc:	e0bfde17 	ldw	r2,-136(fp)
     fc0:	e0ffe017 	ldw	r3,-128(fp)
     fc4:	1887883a 	add	r3,r3,r2
     fc8:	e0bfde17 	ldw	r2,-136(fp)
     fcc:	1009883a 	mov	r4,r2
     fd0:	2005883a 	mov	r2,r4
     fd4:	1085883a 	add	r2,r2,r2
     fd8:	1105883a 	add	r2,r2,r4
     fdc:	18800005 	stb	r2,0(r3)
  data_read = malloc(100);

  test_offset = (regions->offset + (block * regions->block_size));

  /* Fill write buffer with 100 values (incremented by 3) */
  for(i=0; i < 100; i++)
     fe0:	e0bfde17 	ldw	r2,-136(fp)
     fe4:	10800044 	addi	r2,r2,1
     fe8:	e0bfde15 	stw	r2,-136(fp)
     fec:	e0bfde17 	ldw	r2,-136(fp)
     ff0:	10801910 	cmplti	r2,r2,100
     ff4:	103ff11e 	bne	r2,zero,fbc <__alt_mem_epcs_flash_controller_0+0xff7fffbc>
    *(data_written + i) = (i * 3);

  /* Write the buffer to flash starting 0x40 bytes from the beginning of the block. */
  printf(" -Testing \"alt_write_flash_block\".");
     ff8:	010000b4 	movhi	r4,2
     ffc:	2135c004 	addi	r4,r4,-10496
    1000:	0002f8c0 	call	2f8c <printf>
  ret_code = alt_write_flash_block(fd, test_offset, (test_offset + 0x40), data_written, 100);
    1004:	e0bfe217 	ldw	r2,-120(fp)
    1008:	10801004 	addi	r2,r2,64
    100c:	e0fffd17 	ldw	r3,-12(fp)
    1010:	e0ffe715 	stw	r3,-100(fp)
    1014:	e0ffe217 	ldw	r3,-120(fp)
    1018:	e0ffe815 	stw	r3,-96(fp)
    101c:	e0bfe915 	stw	r2,-92(fp)
    1020:	e0bfe017 	ldw	r2,-128(fp)
    1024:	e0bfea15 	stw	r2,-88(fp)
    1028:	00801904 	movi	r2,100
    102c:	e0bfeb15 	stw	r2,-84(fp)
                                      int data_offset,
                                      const void *data, int length)
{

  int ret_code;
  ret_code = fd->write_block( fd, block_offset, data_offset, data, length );
    1030:	e0bfe717 	ldw	r2,-100(fp)
    1034:	10800917 	ldw	r2,36(r2)
    1038:	e0ffeb17 	ldw	r3,-84(fp)
    103c:	d8c00015 	stw	r3,0(sp)
    1040:	e1ffea17 	ldw	r7,-88(fp)
    1044:	e1bfe917 	ldw	r6,-92(fp)
    1048:	e17fe817 	ldw	r5,-96(fp)
    104c:	e13fe717 	ldw	r4,-100(fp)
    1050:	103ee83a 	callr	r2
    1054:	e0bfec15 	stw	r2,-80(fp)

/* remove dcache_flush call for FB330552  
  if(!ret_code)
      alt_dcache_flush((alt_u8*)fd->base_addr + data_offset, length);
*/
  return ret_code;
    1058:	e0bfec17 	ldw	r2,-80(fp)
    105c:	e0bfdf15 	stw	r2,-132(fp)
  if (!ret_code)
    1060:	e0bfdf17 	ldw	r2,-132(fp)
    1064:	1000241e 	bne	r2,zero,10f8 <FlashTestBlockWrite+0x1a8>
  {
    /* Now read it back into the read_buffer */
    ret_code = alt_read_flash(fd, (test_offset + 0x40), data_read, 100);
    1068:	e0bfe217 	ldw	r2,-120(fp)
    106c:	10801004 	addi	r2,r2,64
    1070:	e0fffd17 	ldw	r3,-12(fp)
    1074:	e0ffe315 	stw	r3,-116(fp)
    1078:	e0bfed15 	stw	r2,-76(fp)
    107c:	e0bfe117 	ldw	r2,-124(fp)
    1080:	e0bfee15 	stw	r2,-72(fp)
    1084:	00801904 	movi	r2,100
    1088:	e0bfef15 	stw	r2,-68(fp)
 */
static __inline__ int __attribute__ ((always_inline)) alt_read_flash( 
                                      alt_flash_fd* fd, int offset, 
                                      void* dest_addr, int length )
{
  return fd->read( fd, offset, dest_addr, length );
    108c:	e0bfe317 	ldw	r2,-116(fp)
    1090:	10800617 	ldw	r2,24(r2)
    1094:	e1ffef17 	ldw	r7,-68(fp)
    1098:	e1bfee17 	ldw	r6,-72(fp)
    109c:	e17fed17 	ldw	r5,-76(fp)
    10a0:	e13fe317 	ldw	r4,-116(fp)
    10a4:	103ee83a 	callr	r2
    10a8:	e0bfdf15 	stw	r2,-132(fp)
    if(!ret_code)
    10ac:	e0bfdf17 	ldw	r2,-132(fp)
    10b0:	1000111e 	bne	r2,zero,10f8 <FlashTestBlockWrite+0x1a8>
    {
      /* See if they match */
      if (memcmp(data_written, data_read, 100))
    10b4:	01801904 	movi	r6,100
    10b8:	e17fe117 	ldw	r5,-124(fp)
    10bc:	e13fe017 	ldw	r4,-128(fp)
    10c0:	0002d980 	call	2d98 <memcmp>
    10c4:	10000926 	beq	r2,zero,10ec <FlashTestBlockWrite+0x19c>
      {
        printf("  FAILED.\n");
    10c8:	010000b4 	movhi	r4,2
    10cc:	2135c904 	addi	r4,r4,-10460
    10d0:	00030a80 	call	30a8 <puts>
        (*error)++;
    10d4:	e0bffc17 	ldw	r2,-16(fp)
    10d8:	10800017 	ldw	r2,0(r2)
    10dc:	10c00044 	addi	r3,r2,1
    10e0:	e0bffc17 	ldw	r2,-16(fp)
    10e4:	10c00015 	stw	r3,0(r2)
    10e8:	00000306 	br	10f8 <FlashTestBlockWrite+0x1a8>
      }
      else
        printf("  passed.\n");
    10ec:	010000b4 	movhi	r4,2
    10f0:	2135cc04 	addi	r4,r4,-10448
    10f4:	00030a80 	call	30a8 <puts>
    }
  }

  /* Test unaligned writes */
  if(!ret_code)
    10f8:	e0bfdf17 	ldw	r2,-132(fp)
    10fc:	10004f1e 	bne	r2,zero,123c <FlashTestBlockWrite+0x2ec>
  {
    /* Erase the block */
    ret_code = alt_erase_flash_block(fd, test_offset, regions->block_size);
    1100:	e0bffe17 	ldw	r2,-8(fp)
    1104:	10800317 	ldw	r2,12(r2)
    1108:	e0fffd17 	ldw	r3,-12(fp)
    110c:	e0ffe615 	stw	r3,-104(fp)
    1110:	e0ffe217 	ldw	r3,-120(fp)
    1114:	e0fff515 	stw	r3,-44(fp)
    1118:	e0bff615 	stw	r2,-40(fp)
 */
static __inline__ int __attribute__ ((always_inline)) alt_erase_flash_block( 
                                      alt_flash_fd* fd, int offset, int length) 
{
  int ret_code;
  ret_code = fd->erase_block( fd, offset );
    111c:	e0bfe617 	ldw	r2,-104(fp)
    1120:	10800817 	ldw	r2,32(r2)
    1124:	e17ff517 	ldw	r5,-44(fp)
    1128:	e13fe617 	ldw	r4,-104(fp)
    112c:	103ee83a 	callr	r2
    1130:	e0bff715 	stw	r2,-36(fp)
  
/* remove dcache_flush call for FB330552  
  if(!ret_code)
      alt_dcache_flush((alt_u8*)fd->base_addr + offset, length);
*/
  return ret_code;
    1134:	e0bff717 	ldw	r2,-36(fp)
    1138:	e0bfdf15 	stw	r2,-132(fp)
  
    /* Write the buffer to flash on an unaligned address. */
    printf(" -Testing unaligned writes.");
    113c:	010000b4 	movhi	r4,2
    1140:	2135cf04 	addi	r4,r4,-10436
    1144:	0002f8c0 	call	2f8c <printf>
    ret_code = alt_write_flash_block(fd, test_offset, (test_offset + 0x43), data_written, 100);
    1148:	e0bfe217 	ldw	r2,-120(fp)
    114c:	108010c4 	addi	r2,r2,67
    1150:	e0fffd17 	ldw	r3,-12(fp)
    1154:	e0ffe415 	stw	r3,-112(fp)
    1158:	e0ffe217 	ldw	r3,-120(fp)
    115c:	e0fff015 	stw	r3,-64(fp)
    1160:	e0bff115 	stw	r2,-60(fp)
    1164:	e0bfe017 	ldw	r2,-128(fp)
    1168:	e0bff215 	stw	r2,-56(fp)
    116c:	00801904 	movi	r2,100
    1170:	e0bff315 	stw	r2,-52(fp)
                                      int data_offset,
                                      const void *data, int length)
{

  int ret_code;
  ret_code = fd->write_block( fd, block_offset, data_offset, data, length );
    1174:	e0bfe417 	ldw	r2,-112(fp)
    1178:	10800917 	ldw	r2,36(r2)
    117c:	e0fff317 	ldw	r3,-52(fp)
    1180:	d8c00015 	stw	r3,0(sp)
    1184:	e1fff217 	ldw	r7,-56(fp)
    1188:	e1bff117 	ldw	r6,-60(fp)
    118c:	e17ff017 	ldw	r5,-64(fp)
    1190:	e13fe417 	ldw	r4,-112(fp)
    1194:	103ee83a 	callr	r2
    1198:	e0bff415 	stw	r2,-48(fp)

/* remove dcache_flush call for FB330552  
  if(!ret_code)
      alt_dcache_flush((alt_u8*)fd->base_addr + data_offset, length);
*/
  return ret_code;
    119c:	e0bff417 	ldw	r2,-48(fp)
    11a0:	e0bfdf15 	stw	r2,-132(fp)
    if (!ret_code)
    11a4:	e0bfdf17 	ldw	r2,-132(fp)
    11a8:	1000241e 	bne	r2,zero,123c <FlashTestBlockWrite+0x2ec>
    {
      /* Now read it back into the read_buffer */
      ret_code = alt_read_flash(fd, (test_offset + 0x43), data_read, 100);
    11ac:	e0bfe217 	ldw	r2,-120(fp)
    11b0:	108010c4 	addi	r2,r2,67
    11b4:	e0fffd17 	ldw	r3,-12(fp)
    11b8:	e0ffe515 	stw	r3,-108(fp)
    11bc:	e0bff815 	stw	r2,-32(fp)
    11c0:	e0bfe117 	ldw	r2,-124(fp)
    11c4:	e0bff915 	stw	r2,-28(fp)
    11c8:	00801904 	movi	r2,100
    11cc:	e0bffa15 	stw	r2,-24(fp)
 */
static __inline__ int __attribute__ ((always_inline)) alt_read_flash( 
                                      alt_flash_fd* fd, int offset, 
                                      void* dest_addr, int length )
{
  return fd->read( fd, offset, dest_addr, length );
    11d0:	e0bfe517 	ldw	r2,-108(fp)
    11d4:	10800617 	ldw	r2,24(r2)
    11d8:	e1fffa17 	ldw	r7,-24(fp)
    11dc:	e1bff917 	ldw	r6,-28(fp)
    11e0:	e17ff817 	ldw	r5,-32(fp)
    11e4:	e13fe517 	ldw	r4,-108(fp)
    11e8:	103ee83a 	callr	r2
    11ec:	e0bfdf15 	stw	r2,-132(fp)
      if(!ret_code)
    11f0:	e0bfdf17 	ldw	r2,-132(fp)
    11f4:	1000111e 	bne	r2,zero,123c <FlashTestBlockWrite+0x2ec>
      {
        /* See if they match */
        if (memcmp(data_written, data_read, 100))
    11f8:	01801904 	movi	r6,100
    11fc:	e17fe117 	ldw	r5,-124(fp)
    1200:	e13fe017 	ldw	r4,-128(fp)
    1204:	0002d980 	call	2d98 <memcmp>
    1208:	10000926 	beq	r2,zero,1230 <FlashTestBlockWrite+0x2e0>
        {
          printf("  FAILED.\n");
    120c:	010000b4 	movhi	r4,2
    1210:	2135c904 	addi	r4,r4,-10460
    1214:	00030a80 	call	30a8 <puts>
          (*error)++;
    1218:	e0bffc17 	ldw	r2,-16(fp)
    121c:	10800017 	ldw	r2,0(r2)
    1220:	10c00044 	addi	r3,r2,1
    1224:	e0bffc17 	ldw	r2,-16(fp)
    1228:	10c00015 	stw	r3,0(r2)
    122c:	00000306 	br	123c <FlashTestBlockWrite+0x2ec>
        }
        else
          printf("  passed.\n");
    1230:	010000b4 	movhi	r4,2
    1234:	2135cc04 	addi	r4,r4,-10448
    1238:	00030a80 	call	30a8 <puts>
      }
    }
  }

  /* Free up the buffers we allocated. */
  free(data_written);
    123c:	e13fe017 	ldw	r4,-128(fp)
    1240:	00025780 	call	2578 <free>
  free(data_read);
    1244:	e13fe117 	ldw	r4,-124(fp)
    1248:	00025780 	call	2578 <free>
  
  return ret_code;
    124c:	e0bfdf17 	ldw	r2,-132(fp)
}
    1250:	e6ffff04 	addi	sp,fp,-4
    1254:	dfc00217 	ldw	ra,8(sp)
    1258:	df000117 	ldw	fp,4(sp)
    125c:	dc000017 	ldw	r16,0(sp)
    1260:	dec00304 	addi	sp,sp,12
    1264:	f800283a 	ret

00001268 <FlashTestReadWrite>:
*           that every bit in the specified block can store both
*           a '1' and '0'.
*
******************************************************************/
static int FlashTestReadWrite(int block, int *error, alt_flash_fd* fd, flash_region* regions)
{
    1268:	deffe404 	addi	sp,sp,-112
    126c:	dfc01b15 	stw	ra,108(sp)
    1270:	df001a15 	stw	fp,104(sp)
    1274:	dc001915 	stw	r16,100(sp)
    1278:	df001a04 	addi	fp,sp,104
    127c:	e13ffb15 	stw	r4,-20(fp)
    1280:	e17ffc15 	stw	r5,-16(fp)
    1284:	e1bffd15 	stw	r6,-12(fp)
    1288:	e1fffe15 	stw	r7,-8(fp)
  int i;
  int ret_code = 0x0;
    128c:	e03fe715 	stw	zero,-100(fp)
  alt_u8 *data_written;
  alt_u8 *data_read;
 

  /* Get a couple buffers for the tests */
  data_written = malloc(regions->block_size);
    1290:	e0bffe17 	ldw	r2,-8(fp)
    1294:	10800317 	ldw	r2,12(r2)
    1298:	1009883a 	mov	r4,r2
    129c:	00025640 	call	2564 <malloc>
    12a0:	e0bfe815 	stw	r2,-96(fp)
  data_read = malloc(regions->block_size);
    12a4:	e0bffe17 	ldw	r2,-8(fp)
    12a8:	10800317 	ldw	r2,12(r2)
    12ac:	1009883a 	mov	r4,r2
    12b0:	00025640 	call	2564 <malloc>
    12b4:	e0bfe915 	stw	r2,-92(fp)
 
  /* Calculate the offset at which the block lives */
  test_offset = (regions->offset + (block * regions->block_size));
    12b8:	e0bffe17 	ldw	r2,-8(fp)
    12bc:	14000017 	ldw	r16,0(r2)
    12c0:	e0bffe17 	ldw	r2,-8(fp)
    12c4:	10800317 	ldw	r2,12(r2)
    12c8:	e17ffb17 	ldw	r5,-20(fp)
    12cc:	1009883a 	mov	r4,r2
    12d0:	00024440 	call	2444 <__mulsi3>
    12d4:	8085883a 	add	r2,r16,r2
    12d8:	e0bfea15 	stw	r2,-88(fp)

  printf("\n -Starting Flash Test.\n");
    12dc:	010000b4 	movhi	r4,2
    12e0:	2135d604 	addi	r4,r4,-10408
    12e4:	00030a80 	call	30a8 <puts>
 
  printf(" -Testing \"alt_write_flash\" and \"alt_read_flash\".\n");
    12e8:	010000b4 	movhi	r4,2
    12ec:	2135dc04 	addi	r4,r4,-10384
    12f0:	00030a80 	call	30a8 <puts>
  /* Fill buffer with incrementing values */
  for(i=0; i < regions->block_size; i++)
    12f4:	e03fe615 	stw	zero,-104(fp)
    12f8:	00000806 	br	131c <FlashTestReadWrite+0xb4>
    *(data_written + i) = i;
    12fc:	e0bfe617 	ldw	r2,-104(fp)
    1300:	e0ffe817 	ldw	r3,-96(fp)
    1304:	1885883a 	add	r2,r3,r2
    1308:	e0ffe617 	ldw	r3,-104(fp)
    130c:	10c00005 	stb	r3,0(r2)

  printf("\n -Starting Flash Test.\n");
 
  printf(" -Testing \"alt_write_flash\" and \"alt_read_flash\".\n");
  /* Fill buffer with incrementing values */
  for(i=0; i < regions->block_size; i++)
    1310:	e0bfe617 	ldw	r2,-104(fp)
    1314:	10800044 	addi	r2,r2,1
    1318:	e0bfe615 	stw	r2,-104(fp)
    131c:	e0bffe17 	ldw	r2,-8(fp)
    1320:	10800317 	ldw	r2,12(r2)
    1324:	e0ffe617 	ldw	r3,-104(fp)
    1328:	18bff416 	blt	r3,r2,12fc <__alt_mem_epcs_flash_controller_0+0xff8002fc>
    *(data_written + i) = i;

  /* Write the buffer to flash block */
  ret_code = alt_write_flash(fd, test_offset, data_written, regions->block_size);
    132c:	e0bffe17 	ldw	r2,-8(fp)
    1330:	10800317 	ldw	r2,12(r2)
    1334:	e0fffd17 	ldw	r3,-12(fp)
    1338:	e0ffee15 	stw	r3,-72(fp)
    133c:	e0ffea17 	ldw	r3,-88(fp)
    1340:	e0ffef15 	stw	r3,-68(fp)
    1344:	e0ffe817 	ldw	r3,-96(fp)
    1348:	e0fff015 	stw	r3,-64(fp)
    134c:	e0bff115 	stw	r2,-60(fp)
                                                           alt_flash_fd* fd, 
                                                           int offset, 
                                                           const void* src_addr, 
                                                           int length )
{
  return fd->write( fd, offset, src_addr, length );
    1350:	e0bfee17 	ldw	r2,-72(fp)
    1354:	10800517 	ldw	r2,20(r2)
    1358:	e1fff117 	ldw	r7,-60(fp)
    135c:	e1bff017 	ldw	r6,-64(fp)
    1360:	e17fef17 	ldw	r5,-68(fp)
    1364:	e13fee17 	ldw	r4,-72(fp)
    1368:	103ee83a 	callr	r2
    136c:	e0bfe715 	stw	r2,-100(fp)
     
  if (!ret_code)
    1370:	e0bfe717 	ldw	r2,-100(fp)
    1374:	1000731e 	bne	r2,zero,1544 <FlashTestReadWrite+0x2dc>
  {
    /* Read flash block into read buffer */
    ret_code = alt_read_flash(fd, test_offset, data_read, regions->block_size);
    1378:	e0bffe17 	ldw	r2,-8(fp)
    137c:	10800317 	ldw	r2,12(r2)
    1380:	e0fffd17 	ldw	r3,-12(fp)
    1384:	e0ffeb15 	stw	r3,-84(fp)
    1388:	e0ffea17 	ldw	r3,-88(fp)
    138c:	e0fff215 	stw	r3,-56(fp)
    1390:	e0ffe917 	ldw	r3,-92(fp)
    1394:	e0fff315 	stw	r3,-52(fp)
    1398:	e0bff415 	stw	r2,-48(fp)
 */
static __inline__ int __attribute__ ((always_inline)) alt_read_flash( 
                                      alt_flash_fd* fd, int offset, 
                                      void* dest_addr, int length )
{
  return fd->read( fd, offset, dest_addr, length );
    139c:	e0bfeb17 	ldw	r2,-84(fp)
    13a0:	10800617 	ldw	r2,24(r2)
    13a4:	e1fff417 	ldw	r7,-48(fp)
    13a8:	e1bff317 	ldw	r6,-52(fp)
    13ac:	e17ff217 	ldw	r5,-56(fp)
    13b0:	e13feb17 	ldw	r4,-84(fp)
    13b4:	103ee83a 	callr	r2
    13b8:	e0bfe715 	stw	r2,-100(fp)
    if(!ret_code)
    13bc:	e0bfe717 	ldw	r2,-100(fp)
    13c0:	1000131e 	bne	r2,zero,1410 <FlashTestReadWrite+0x1a8>
    {
      /* See if they match */
      if (memcmp(data_written, data_read, regions->block_size))
    13c4:	e0bffe17 	ldw	r2,-8(fp)
    13c8:	10800317 	ldw	r2,12(r2)
    13cc:	100d883a 	mov	r6,r2
    13d0:	e17fe917 	ldw	r5,-92(fp)
    13d4:	e13fe817 	ldw	r4,-96(fp)
    13d8:	0002d980 	call	2d98 <memcmp>
    13dc:	10000926 	beq	r2,zero,1404 <FlashTestReadWrite+0x19c>
      {
        printf("    pass 1 - FAILED.\n");
    13e0:	010000b4 	movhi	r4,2
    13e4:	2135e904 	addi	r4,r4,-10332
    13e8:	00030a80 	call	30a8 <puts>
        (*error)++;
    13ec:	e0bffc17 	ldw	r2,-16(fp)
    13f0:	10800017 	ldw	r2,0(r2)
    13f4:	10c00044 	addi	r3,r2,1
    13f8:	e0bffc17 	ldw	r2,-16(fp)
    13fc:	10c00015 	stw	r3,0(r2)
    1400:	00000306 	br	1410 <FlashTestReadWrite+0x1a8>
      }
      else
        printf("    pass 1 - passed.\n");
    1404:	010000b4 	movhi	r4,2
    1408:	2135ef04 	addi	r4,r4,-10308
    140c:	00030a80 	call	30a8 <puts>
    }
  
    /* Now fill the buffer with decrementing values (invert the incrementing ones) */
    for(i=0; i < regions->block_size; i++)
    1410:	e03fe615 	stw	zero,-104(fp)
    1414:	00000906 	br	143c <FlashTestReadWrite+0x1d4>
      *(data_written + i) = ~((alt_u8)(i));
    1418:	e0bfe617 	ldw	r2,-104(fp)
    141c:	e0ffe817 	ldw	r3,-96(fp)
    1420:	1885883a 	add	r2,r3,r2
    1424:	e0ffe617 	ldw	r3,-104(fp)
    1428:	00c6303a 	nor	r3,zero,r3
    142c:	10c00005 	stb	r3,0(r2)
      else
        printf("    pass 1 - passed.\n");
    }
  
    /* Now fill the buffer with decrementing values (invert the incrementing ones) */
    for(i=0; i < regions->block_size; i++)
    1430:	e0bfe617 	ldw	r2,-104(fp)
    1434:	10800044 	addi	r2,r2,1
    1438:	e0bfe615 	stw	r2,-104(fp)
    143c:	e0bffe17 	ldw	r2,-8(fp)
    1440:	10800317 	ldw	r2,12(r2)
    1444:	e0ffe617 	ldw	r3,-104(fp)
    1448:	18bff316 	blt	r3,r2,1418 <__alt_mem_epcs_flash_controller_0+0xff800418>
      *(data_written + i) = ~((alt_u8)(i));
 
    /* Write the buffer to flash block */
    ret_code = alt_write_flash(fd, test_offset, data_written, regions->block_size);
    144c:	e0bffe17 	ldw	r2,-8(fp)
    1450:	10800317 	ldw	r2,12(r2)
    1454:	e0fffd17 	ldw	r3,-12(fp)
    1458:	e0ffec15 	stw	r3,-80(fp)
    145c:	e0ffea17 	ldw	r3,-88(fp)
    1460:	e0fff515 	stw	r3,-44(fp)
    1464:	e0ffe817 	ldw	r3,-96(fp)
    1468:	e0fff615 	stw	r3,-40(fp)
    146c:	e0bff715 	stw	r2,-36(fp)
                                                           alt_flash_fd* fd, 
                                                           int offset, 
                                                           const void* src_addr, 
                                                           int length )
{
  return fd->write( fd, offset, src_addr, length );
    1470:	e0bfec17 	ldw	r2,-80(fp)
    1474:	10800517 	ldw	r2,20(r2)
    1478:	e1fff717 	ldw	r7,-36(fp)
    147c:	e1bff617 	ldw	r6,-40(fp)
    1480:	e17ff517 	ldw	r5,-44(fp)
    1484:	e13fec17 	ldw	r4,-80(fp)
    1488:	103ee83a 	callr	r2
    148c:	e0bfe715 	stw	r2,-100(fp)
    
    if (!ret_code)
    1490:	e0bfe717 	ldw	r2,-100(fp)
    1494:	1000261e 	bne	r2,zero,1530 <FlashTestReadWrite+0x2c8>
    {
      /* Read flash block into read buffer */
      ret_code = alt_read_flash(fd, test_offset, data_read, regions->block_size);
    1498:	e0bffe17 	ldw	r2,-8(fp)
    149c:	10800317 	ldw	r2,12(r2)
    14a0:	e0fffd17 	ldw	r3,-12(fp)
    14a4:	e0ffed15 	stw	r3,-76(fp)
    14a8:	e0ffea17 	ldw	r3,-88(fp)
    14ac:	e0fff815 	stw	r3,-32(fp)
    14b0:	e0ffe917 	ldw	r3,-92(fp)
    14b4:	e0fff915 	stw	r3,-28(fp)
    14b8:	e0bffa15 	stw	r2,-24(fp)
 */
static __inline__ int __attribute__ ((always_inline)) alt_read_flash( 
                                      alt_flash_fd* fd, int offset, 
                                      void* dest_addr, int length )
{
  return fd->read( fd, offset, dest_addr, length );
    14bc:	e0bfed17 	ldw	r2,-76(fp)
    14c0:	10800617 	ldw	r2,24(r2)
    14c4:	e1fffa17 	ldw	r7,-24(fp)
    14c8:	e1bff917 	ldw	r6,-28(fp)
    14cc:	e17ff817 	ldw	r5,-32(fp)
    14d0:	e13fed17 	ldw	r4,-76(fp)
    14d4:	103ee83a 	callr	r2
    14d8:	e0bfe715 	stw	r2,-100(fp)
      if(!ret_code)
    14dc:	e0bfe717 	ldw	r2,-100(fp)
    14e0:	1000131e 	bne	r2,zero,1530 <FlashTestReadWrite+0x2c8>
      {
        /* See if they match */
        if (memcmp(data_written, data_read, regions->block_size))
    14e4:	e0bffe17 	ldw	r2,-8(fp)
    14e8:	10800317 	ldw	r2,12(r2)
    14ec:	100d883a 	mov	r6,r2
    14f0:	e17fe917 	ldw	r5,-92(fp)
    14f4:	e13fe817 	ldw	r4,-96(fp)
    14f8:	0002d980 	call	2d98 <memcmp>
    14fc:	10000926 	beq	r2,zero,1524 <FlashTestReadWrite+0x2bc>
        {
          printf("    pass 2 - FAILED.\n");
    1500:	010000b4 	movhi	r4,2
    1504:	2135f504 	addi	r4,r4,-10284
    1508:	00030a80 	call	30a8 <puts>
          (*error)++;
    150c:	e0bffc17 	ldw	r2,-16(fp)
    1510:	10800017 	ldw	r2,0(r2)
    1514:	10c00044 	addi	r3,r2,1
    1518:	e0bffc17 	ldw	r2,-16(fp)
    151c:	10c00015 	stw	r3,0(r2)
    1520:	00000306 	br	1530 <FlashTestReadWrite+0x2c8>
        }
        else
          printf("    pass 2 - passed.\n");
    1524:	010000b4 	movhi	r4,2
    1528:	2135fb04 	addi	r4,r4,-10260
    152c:	00030a80 	call	30a8 <puts>
      }
    }
    if (*error)
    1530:	e0bffc17 	ldw	r2,-16(fp)
    1534:	10800017 	ldw	r2,0(r2)
    1538:	10000226 	beq	r2,zero,1544 <FlashTestReadWrite+0x2dc>
      ret_code = 1;
    153c:	00800044 	movi	r2,1
    1540:	e0bfe715 	stw	r2,-100(fp)
  }

  /* Free up the buffers we allocated */
  free(data_written);
    1544:	e13fe817 	ldw	r4,-96(fp)
    1548:	00025780 	call	2578 <free>
  free(data_read);
    154c:	e13fe917 	ldw	r4,-92(fp)
    1550:	00025780 	call	2578 <free>
  
  return ret_code;
    1554:	e0bfe717 	ldw	r2,-100(fp)
}
    1558:	e6ffff04 	addi	sp,fp,-4
    155c:	dfc00217 	ldw	ra,8(sp)
    1560:	df000117 	ldw	fp,4(sp)
    1564:	dc000017 	ldw	r16,0(sp)
    1568:	dec00304 	addi	sp,sp,12
    156c:	f800283a 	ret

00001570 <FlashTestBlockErase>:
*           flash block contains some non-0xFFFFFFFF data before
*           this function is called.
*
******************************************************************/
static int FlashTestBlockErase(int block, int *error, alt_flash_fd* fd, flash_region* regions)
{
    1570:	defff304 	addi	sp,sp,-52
    1574:	dfc00c15 	stw	ra,48(sp)
    1578:	df000b15 	stw	fp,44(sp)
    157c:	dc000a15 	stw	r16,40(sp)
    1580:	df000b04 	addi	fp,sp,44
    1584:	e13ffb15 	stw	r4,-20(fp)
    1588:	e17ffc15 	stw	r5,-16(fp)
    158c:	e1bffd15 	stw	r6,-12(fp)
    1590:	e1fffe15 	stw	r7,-8(fp)

  int ret_code = 0x0;
    1594:	e03ff515 	stw	zero,-44(fp)
  int test_offset;

  /* Calculate the offset of the block */
  test_offset = (regions->offset + (block * regions->block_size));
    1598:	e0bffe17 	ldw	r2,-8(fp)
    159c:	14000017 	ldw	r16,0(r2)
    15a0:	e0bffe17 	ldw	r2,-8(fp)
    15a4:	10800317 	ldw	r2,12(r2)
    15a8:	e17ffb17 	ldw	r5,-20(fp)
    15ac:	1009883a 	mov	r4,r2
    15b0:	00024440 	call	2444 <__mulsi3>
    15b4:	8085883a 	add	r2,r16,r2
    15b8:	e0bff615 	stw	r2,-40(fp)

  printf(" -Testing \"alt_erase_flash_block\".");
    15bc:	010000b4 	movhi	r4,2
    15c0:	21360104 	addi	r4,r4,-10236
    15c4:	0002f8c0 	call	2f8c <printf>
  ret_code = alt_erase_flash_block(fd, test_offset, regions->block_size);
    15c8:	e0bffe17 	ldw	r2,-8(fp)
    15cc:	10800317 	ldw	r2,12(r2)
    15d0:	e0fffd17 	ldw	r3,-12(fp)
    15d4:	e0fff715 	stw	r3,-36(fp)
    15d8:	e0fff617 	ldw	r3,-40(fp)
    15dc:	e0fff815 	stw	r3,-32(fp)
    15e0:	e0bff915 	stw	r2,-28(fp)
 */
static __inline__ int __attribute__ ((always_inline)) alt_erase_flash_block( 
                                      alt_flash_fd* fd, int offset, int length) 
{
  int ret_code;
  ret_code = fd->erase_block( fd, offset );
    15e4:	e0bff717 	ldw	r2,-36(fp)
    15e8:	10800817 	ldw	r2,32(r2)
    15ec:	e17ff817 	ldw	r5,-32(fp)
    15f0:	e13ff717 	ldw	r4,-36(fp)
    15f4:	103ee83a 	callr	r2
    15f8:	e0bffa15 	stw	r2,-24(fp)
  
/* remove dcache_flush call for FB330552  
  if(!ret_code)
      alt_dcache_flush((alt_u8*)fd->base_addr + offset, length);
*/
  return ret_code;
    15fc:	e0bffa17 	ldw	r2,-24(fp)
    1600:	e0bff515 	stw	r2,-44(fp)
  /* Check that the erase was successful. */
  if (!ret_code)
    1604:	e0bff517 	ldw	r2,-44(fp)
    1608:	1000111e 	bne	r2,zero,1650 <FlashTestBlockErase+0xe0>
  {
    if(FlashCheckIfBlockErased(fd, block, regions))
    160c:	e1bffe17 	ldw	r6,-8(fp)
    1610:	e17ffb17 	ldw	r5,-20(fp)
    1614:	e13ffd17 	ldw	r4,-12(fp)
    1618:	0000e000 	call	e00 <FlashCheckIfBlockErased>
    161c:	10000426 	beq	r2,zero,1630 <FlashTestBlockErase+0xc0>
      printf("  passed.\n");
    1620:	010000b4 	movhi	r4,2
    1624:	2135cc04 	addi	r4,r4,-10448
    1628:	00030a80 	call	30a8 <puts>
    162c:	00000806 	br	1650 <FlashTestBlockErase+0xe0>
    else
    {
      printf("  FAILED\n");  
    1630:	010000b4 	movhi	r4,2
    1634:	21360a04 	addi	r4,r4,-10200
    1638:	00030a80 	call	30a8 <puts>
      (*error)++;
    163c:	e0bffc17 	ldw	r2,-16(fp)
    1640:	10800017 	ldw	r2,0(r2)
    1644:	10c00044 	addi	r3,r2,1
    1648:	e0bffc17 	ldw	r2,-16(fp)
    164c:	10c00015 	stw	r3,0(r2)
    }
  }
  
  return ret_code;
    1650:	e0bff517 	ldw	r2,-44(fp)
}
    1654:	e6ffff04 	addi	sp,fp,-4
    1658:	dfc00217 	ldw	ra,8(sp)
    165c:	df000117 	ldw	fp,4(sp)
    1660:	dc000017 	ldw	r16,0(sp)
    1664:	dec00304 	addi	sp,sp,12
    1668:	f800283a 	ret

0000166c <FlashRunTests>:
*             - alt_erase_flash_block
*             - alt_write_flash_block
* 
******************************************************************/
static void FlashRunTests(alt_flash_fd* fd, int block, flash_region* regions)
{
    166c:	defff304 	addi	sp,sp,-52
    1670:	dfc00c15 	stw	ra,48(sp)
    1674:	df000b15 	stw	fp,44(sp)
    1678:	dc000a15 	stw	r16,40(sp)
    167c:	df000b04 	addi	fp,sp,44
    1680:	e13ffc15 	stw	r4,-16(fp)
    1684:	e17ffd15 	stw	r5,-12(fp)
    1688:	e1bffe15 	stw	r6,-8(fp)
  int ret_code = 0x0;
    168c:	e03ff515 	stw	zero,-44(fp)
  int error = 0x0;
    1690:	e03ffb15 	stw	zero,-20(fp)
  int test_offset;

  /* Calculate the offset of the block */
  test_offset = (regions->offset + (block * regions->block_size));
    1694:	e0bffe17 	ldw	r2,-8(fp)
    1698:	14000017 	ldw	r16,0(r2)
    169c:	e0bffe17 	ldw	r2,-8(fp)
    16a0:	10800317 	ldw	r2,12(r2)
    16a4:	e17ffd17 	ldw	r5,-12(fp)
    16a8:	1009883a 	mov	r4,r2
    16ac:	00024440 	call	2444 <__mulsi3>
    16b0:	8085883a 	add	r2,r16,r2
    16b4:	e0bff615 	stw	r2,-40(fp)
  
  /* Test reading and writing functions */
  ret_code = FlashTestReadWrite(block, &error, fd, regions);
    16b8:	e0bffb04 	addi	r2,fp,-20
    16bc:	e1fffe17 	ldw	r7,-8(fp)
    16c0:	e1bffc17 	ldw	r6,-16(fp)
    16c4:	100b883a 	mov	r5,r2
    16c8:	e13ffd17 	ldw	r4,-12(fp)
    16cc:	00012680 	call	1268 <FlashTestReadWrite>
    16d0:	e0bff515 	stw	r2,-44(fp)
 
  /* Test the erase function */
  if (!ret_code)
    16d4:	e0bff517 	ldw	r2,-44(fp)
    16d8:	1000071e 	bne	r2,zero,16f8 <FlashRunTests+0x8c>
  {
    ret_code = FlashTestBlockErase(block, &error, fd, regions);
    16dc:	e0bffb04 	addi	r2,fp,-20
    16e0:	e1fffe17 	ldw	r7,-8(fp)
    16e4:	e1bffc17 	ldw	r6,-16(fp)
    16e8:	100b883a 	mov	r5,r2
    16ec:	e13ffd17 	ldw	r4,-12(fp)
    16f0:	00015700 	call	1570 <FlashTestBlockErase>
    16f4:	e0bff515 	stw	r2,-44(fp)
  }
  /* Test the block write function */
  if (!ret_code)
    16f8:	e0bff517 	ldw	r2,-44(fp)
    16fc:	1000071e 	bne	r2,zero,171c <FlashRunTests+0xb0>
  {
    ret_code = FlashTestBlockWrite(block, &error, fd, regions);
    1700:	e0bffb04 	addi	r2,fp,-20
    1704:	e1fffe17 	ldw	r7,-8(fp)
    1708:	e1bffc17 	ldw	r6,-16(fp)
    170c:	100b883a 	mov	r5,r2
    1710:	e13ffd17 	ldw	r4,-12(fp)
    1714:	0000f500 	call	f50 <FlashTestBlockWrite>
    1718:	e0bff515 	stw	r2,-44(fp)
  }

  /* Erase the block so we dont fill one up each time we run the test */
  printf(" -Returning block %d to its erased state.\n", block);
    171c:	e17ffd17 	ldw	r5,-12(fp)
    1720:	010000b4 	movhi	r4,2
    1724:	21360d04 	addi	r4,r4,-10188
    1728:	0002f8c0 	call	2f8c <printf>
  alt_erase_flash_block(fd, test_offset, regions->block_size);
    172c:	e0bffe17 	ldw	r2,-8(fp)
    1730:	10800317 	ldw	r2,12(r2)
    1734:	e0fffc17 	ldw	r3,-16(fp)
    1738:	e0fff715 	stw	r3,-36(fp)
    173c:	e0fff617 	ldw	r3,-40(fp)
    1740:	e0fff815 	stw	r3,-32(fp)
    1744:	e0bff915 	stw	r2,-28(fp)
 */
static __inline__ int __attribute__ ((always_inline)) alt_erase_flash_block( 
                                      alt_flash_fd* fd, int offset, int length) 
{
  int ret_code;
  ret_code = fd->erase_block( fd, offset );
    1748:	e0bff717 	ldw	r2,-36(fp)
    174c:	10800817 	ldw	r2,32(r2)
    1750:	e17ff817 	ldw	r5,-32(fp)
    1754:	e13ff717 	ldw	r4,-36(fp)
    1758:	103ee83a 	callr	r2
    175c:	e0bffa15 	stw	r2,-24(fp)
 
  printf(" -Flash tests complete.\n");
    1760:	010000b4 	movhi	r4,2
    1764:	21361804 	addi	r4,r4,-10144
    1768:	00030a80 	call	30a8 <puts>
  if(ret_code || error)
    176c:	e0bff517 	ldw	r2,-44(fp)
    1770:	1000021e 	bne	r2,zero,177c <FlashRunTests+0x110>
    1774:	e0bffb17 	ldw	r2,-20(fp)
    1778:	10000326 	beq	r2,zero,1788 <FlashRunTests+0x11c>
  {
    printf(" -At least one test failed.\n\n");
    177c:	010000b4 	movhi	r4,2
    1780:	21361e04 	addi	r4,r4,-10120
    1784:	00030a80 	call	30a8 <puts>
  }
}
    1788:	0001883a 	nop
    178c:	e6ffff04 	addi	sp,fp,-4
    1790:	dfc00217 	ldw	ra,8(sp)
    1794:	df000117 	ldw	fp,4(sp)
    1798:	dc000017 	ldw	r16,0(sp)
    179c:	dec00304 	addi	sp,sp,12
    17a0:	f800283a 	ret

000017a4 <GetFlashName>:
*           Defaults to "/dev/ext_flash", the name of the flash
*           component in the Nios II example designs.
* 
******************************************************************/
static int GetFlashName(char line[30], int flash_type)
{
    17a4:	defffa04 	addi	sp,sp,-24
    17a8:	dfc00515 	stw	ra,20(sp)
    17ac:	df000415 	stw	fp,16(sp)
    17b0:	df000404 	addi	fp,sp,16
    17b4:	e13ffe15 	stw	r4,-8(fp)
    17b8:	e17fff15 	stw	r5,-4(fp)

  char ch = 0x0;
    17bc:	e03ffc05 	stb	zero,-16(fp)
  int i;

  if (flash_type == CFI)
    17c0:	e0bfff17 	ldw	r2,-4(fp)
    17c4:	108000d8 	cmpnei	r2,r2,3
    17c8:	1000091e 	bne	r2,zero,17f0 <GetFlashName+0x4c>
  { 
    printf("\nEnter the name of the CFI flash device to be opened,\n");
    17cc:	010000b4 	movhi	r4,2
    17d0:	21362604 	addi	r4,r4,-10088
    17d4:	00030a80 	call	30a8 <puts>
    printf("or just press <enter> to open \"/dev/ext_flash\"\n");
    17d8:	010000b4 	movhi	r4,2
    17dc:	21363404 	addi	r4,r4,-10032
    17e0:	00030a80 	call	30a8 <puts>
    printf(">");
    17e4:	01000f84 	movi	r4,62
    17e8:	0002fd00 	call	2fd0 <putchar>
    17ec:	00000b06 	br	181c <GetFlashName+0x78>
  }
  else if (flash_type == EPCS)
    17f0:	e0bfff17 	ldw	r2,-4(fp)
    17f4:	10800118 	cmpnei	r2,r2,4
    17f8:	1000081e 	bne	r2,zero,181c <GetFlashName+0x78>
  {
    printf("\nEnter the name of the EPCS flash device to be opened,\n");
    17fc:	010000b4 	movhi	r4,2
    1800:	21364004 	addi	r4,r4,-9984
    1804:	00030a80 	call	30a8 <puts>
    printf("or just press <enter> to open \"/dev/epcs_controller\"\n");
    1808:	010000b4 	movhi	r4,2
    180c:	21364e04 	addi	r4,r4,-9928
    1810:	00030a80 	call	30a8 <puts>
    printf(">");
    1814:	01000f84 	movi	r4,62
    1818:	0002fd00 	call	2fd0 <putchar>
  }
 
  for(i = 0; ch != '\n'; i++)
    181c:	e03ffd15 	stw	zero,-12(fp)
    1820:	00003706 	br	1900 <GetFlashName+0x15c>
  {
    ch = getc(stdin);
    1824:	d0a00117 	ldw	r2,-32764(gp)
    1828:	10800117 	ldw	r2,4(r2)
    182c:	1009883a 	mov	r4,r2
    1830:	00024dc0 	call	24dc <getc>
    1834:	e0bffc05 	stb	r2,-16(fp)
    if(ch == '\r' || ch == '\n')
    1838:	e0bffc07 	ldb	r2,-16(fp)
    183c:	10800360 	cmpeqi	r2,r2,13
    1840:	1000031e 	bne	r2,zero,1850 <GetFlashName+0xac>
    1844:	e0bffc07 	ldb	r2,-16(fp)
    1848:	10800298 	cmpnei	r2,r2,10
    184c:	1000221e 	bne	r2,zero,18d8 <GetFlashName+0x134>
    {
      /* Hitting <enter> defaults to the standard component name */
      if( i <= 1 )
    1850:	e0bffd17 	ldw	r2,-12(fp)
    1854:	10800088 	cmpgei	r2,r2,2
    1858:	10001a1e 	bne	r2,zero,18c4 <GetFlashName+0x120>
      {
        if (flash_type == CFI)
    185c:	e0bfff17 	ldw	r2,-4(fp)
    1860:	108000d8 	cmpnei	r2,r2,3
    1864:	10000a1e 	bne	r2,zero,1890 <GetFlashName+0xec>
          strcpy(line, "/dev/ext_flash\0");
    1868:	e0fffe17 	ldw	r3,-8(fp)
    186c:	008000b4 	movhi	r2,2
    1870:	10b65c04 	addi	r2,r2,-9872
    1874:	1009883a 	mov	r4,r2
    1878:	008003c4 	movi	r2,15
    187c:	100d883a 	mov	r6,r2
    1880:	200b883a 	mov	r5,r4
    1884:	1809883a 	mov	r4,r3
    1888:	0002e140 	call	2e14 <memcpy>
  {
    ch = getc(stdin);
    if(ch == '\r' || ch == '\n')
    {
      /* Hitting <enter> defaults to the standard component name */
      if( i <= 1 )
    188c:	00001806 	br	18f0 <GetFlashName+0x14c>
      {
        if (flash_type == CFI)
          strcpy(line, "/dev/ext_flash\0");
        else if (flash_type == EPCS)
    1890:	e0bfff17 	ldw	r2,-4(fp)
    1894:	10800118 	cmpnei	r2,r2,4
    1898:	1000151e 	bne	r2,zero,18f0 <GetFlashName+0x14c>
          strcpy(line, "/dev/epcs_controller\0");
    189c:	e0fffe17 	ldw	r3,-8(fp)
    18a0:	008000b4 	movhi	r2,2
    18a4:	10b66004 	addi	r2,r2,-9856
    18a8:	1009883a 	mov	r4,r2
    18ac:	00800544 	movi	r2,21
    18b0:	100d883a 	mov	r6,r2
    18b4:	200b883a 	mov	r5,r4
    18b8:	1809883a 	mov	r4,r3
    18bc:	0002e140 	call	2e14 <memcpy>
  {
    ch = getc(stdin);
    if(ch == '\r' || ch == '\n')
    {
      /* Hitting <enter> defaults to the standard component name */
      if( i <= 1 )
    18c0:	00000b06 	br	18f0 <GetFlashName+0x14c>
          strcpy(line, "/dev/epcs_controller\0");
      }
         
      else
        /* Properly terminate the string. */
        line[i] = '\0';
    18c4:	e0bffd17 	ldw	r2,-12(fp)
    18c8:	e0fffe17 	ldw	r3,-8(fp)
    18cc:	1885883a 	add	r2,r3,r2
    18d0:	10000005 	stb	zero,0(r2)
  {
    ch = getc(stdin);
    if(ch == '\r' || ch == '\n')
    {
      /* Hitting <enter> defaults to the standard component name */
      if( i <= 1 )
    18d4:	00000606 	br	18f0 <GetFlashName+0x14c>
      else
        /* Properly terminate the string. */
        line[i] = '\0';
    }
    else
     line[i] = ch;
    18d8:	e0bffd17 	ldw	r2,-12(fp)
    18dc:	e0fffe17 	ldw	r3,-8(fp)
    18e0:	1885883a 	add	r2,r3,r2
    18e4:	e0fffc03 	ldbu	r3,-16(fp)
    18e8:	10c00005 	stb	r3,0(r2)
    18ec:	00000106 	br	18f4 <GetFlashName+0x150>
  {
    ch = getc(stdin);
    if(ch == '\r' || ch == '\n')
    {
      /* Hitting <enter> defaults to the standard component name */
      if( i <= 1 )
    18f0:	0001883a 	nop
    printf("\nEnter the name of the EPCS flash device to be opened,\n");
    printf("or just press <enter> to open \"/dev/epcs_controller\"\n");
    printf(">");
  }
 
  for(i = 0; ch != '\n'; i++)
    18f4:	e0bffd17 	ldw	r2,-12(fp)
    18f8:	10800044 	addi	r2,r2,1
    18fc:	e0bffd15 	stw	r2,-12(fp)
    1900:	e0bffc07 	ldb	r2,-16(fp)
    1904:	10800298 	cmpnei	r2,r2,10
    1908:	103fc61e 	bne	r2,zero,1824 <__alt_mem_epcs_flash_controller_0+0xff800824>
    }
    else
     line[i] = ch;
  }
 
  return 0;
    190c:	0005883a 	mov	r2,zero
}
    1910:	e037883a 	mov	sp,fp
    1914:	dfc00117 	ldw	ra,4(sp)
    1918:	df000017 	ldw	fp,0(sp)
    191c:	dec00204 	addi	sp,sp,8
    1920:	f800283a 	ret

00001924 <FlashErase>:
*
*  Purpose: Erases 1 or all blocks in the specified flash device.
* 
******************************************************************/
static void FlashErase(int flash_type)
{
    1924:	deffe204 	addi	sp,sp,-120
    1928:	dfc01d15 	stw	ra,116(sp)
    192c:	df001c15 	stw	fp,112(sp)
    1930:	dc001b15 	stw	r16,108(sp)
    1934:	df001c04 	addi	fp,sp,112
    1938:	e13ffe15 	stw	r4,-8(fp)
  char entry[4];
  char flashname[30];
  unsigned int block;
 
  /* Get the name of the flash we are erasing */
  ret_code = GetFlashName(flashname, flash_type);
    193c:	e0bff504 	addi	r2,fp,-44
    1940:	e17ffe17 	ldw	r5,-8(fp)
    1944:	1009883a 	mov	r4,r2
    1948:	00017a40 	call	17a4 <GetFlashName>
    194c:	e0bfe415 	stw	r2,-112(fp)
 
  fd = alt_flash_open_dev(flashname);
    1950:	e0bff504 	addi	r2,fp,-44
    1954:	1009883a 	mov	r4,r2
    1958:	00199b80 	call	199b8 <alt_flash_open_dev>
    195c:	e0bfe515 	stw	r2,-108(fp)
  if (fd)
    1960:	e0bfe517 	ldw	r2,-108(fp)
    1964:	1000ba26 	beq	r2,zero,1c50 <FlashErase+0x32c>
    1968:	e0bfe517 	ldw	r2,-108(fp)
    196c:	e0bfe915 	stw	r2,-92(fp)
    1970:	e0bff204 	addi	r2,fp,-56
    1974:	e0bfea15 	stw	r2,-88(fp)
    1978:	e0bff304 	addi	r2,fp,-52
    197c:	e0bfeb15 	stw	r2,-84(fp)
 */
static __inline__ int __attribute__ ((always_inline)) alt_get_flash_info( 
                                      alt_flash_fd* fd, flash_region** info, 
                                      int* number_of_regions)
{
  return fd->get_info( fd, info, number_of_regions);
    1980:	e0bfe917 	ldw	r2,-92(fp)
    1984:	10800717 	ldw	r2,28(r2)
    1988:	e1bfeb17 	ldw	r6,-84(fp)
    198c:	e17fea17 	ldw	r5,-88(fp)
    1990:	e13fe917 	ldw	r4,-92(fp)
    1994:	103ee83a 	callr	r2
  {
    /* Find out some useful stuff about the flash */
    ret_code = alt_get_flash_info(fd, &regions, &number_of_regions);
    1998:	e0bfe415 	stw	r2,-112(fp)
    if (!ret_code)
    199c:	e0bfe417 	ldw	r2,-112(fp)
    19a0:	1000a41e 	bne	r2,zero,1c34 <FlashErase+0x310>
    {
      printf(" -Region has %d blocks.\n", regions->number_of_blocks);
    19a4:	e0bff217 	ldw	r2,-56(fp)
    19a8:	10800217 	ldw	r2,8(r2)
    19ac:	100b883a 	mov	r5,r2
    19b0:	010000b4 	movhi	r4,2
    19b4:	21366604 	addi	r4,r4,-9832
    19b8:	0002f8c0 	call	2f8c <printf>
      printf(" -Which block would you like to erase?\n");
    19bc:	010000b4 	movhi	r4,2
    19c0:	21366d04 	addi	r4,r4,-9804
    19c4:	00030a80 	call	30a8 <puts>
      printf(" -> ");
    19c8:	010000b4 	movhi	r4,2
    19cc:	21367704 	addi	r4,r4,-9764
    19d0:	0002f8c0 	call	2f8c <printf>
      
      GetInputString( entry, sizeof(entry), stdin );
    19d4:	d0a00117 	ldw	r2,-32764(gp)
    19d8:	10c00117 	ldw	r3,4(r2)
    19dc:	e0bff404 	addi	r2,fp,-48
    19e0:	180d883a 	mov	r6,r3
    19e4:	01400104 	movi	r5,4
    19e8:	1009883a 	mov	r4,r2
    19ec:	000038c0 	call	38c <GetInputString>

      if(entry[0] == 'a')
    19f0:	e0bff403 	ldbu	r2,-48(fp)
    19f4:	10803fcc 	andi	r2,r2,255
    19f8:	1080201c 	xori	r2,r2,128
    19fc:	10bfe004 	addi	r2,r2,-128
    1a00:	10801858 	cmpnei	r2,r2,97
    1a04:	1000521e 	bne	r2,zero,1b50 <FlashErase+0x22c>
      {
        printf(" -Erase ALL blocks? (y/n) ");
    1a08:	010000b4 	movhi	r4,2
    1a0c:	21367904 	addi	r4,r4,-9756
    1a10:	0002f8c0 	call	2f8c <printf>

        GetInputString( entry, sizeof(entry), stdin );
    1a14:	d0a00117 	ldw	r2,-32764(gp)
    1a18:	10c00117 	ldw	r3,4(r2)
    1a1c:	e0bff404 	addi	r2,fp,-48
    1a20:	180d883a 	mov	r6,r3
    1a24:	01400104 	movi	r5,4
    1a28:	1009883a 	mov	r4,r2
    1a2c:	000038c0 	call	38c <GetInputString>
        
        if(entry[0] == 'y')
    1a30:	e0bff403 	ldbu	r2,-48(fp)
    1a34:	10803fcc 	andi	r2,r2,255
    1a38:	1080201c 	xori	r2,r2,128
    1a3c:	10bfe004 	addi	r2,r2,-128
    1a40:	10801e58 	cmpnei	r2,r2,121
    1a44:	10003f1e 	bne	r2,zero,1b44 <FlashErase+0x220>
        {
          /* Erase all blocks */
          printf(" -Erasing %d blocks.  Please Wait.\n", (regions->number_of_blocks));
    1a48:	e0bff217 	ldw	r2,-56(fp)
    1a4c:	10800217 	ldw	r2,8(r2)
    1a50:	100b883a 	mov	r5,r2
    1a54:	010000b4 	movhi	r4,2
    1a58:	21368004 	addi	r4,r4,-9728
    1a5c:	0002f8c0 	call	2f8c <printf>
          for(block = 0; block < regions->number_of_blocks; block++)
    1a60:	e03ffd15 	stw	zero,-12(fp)
    1a64:	00002e06 	br	1b20 <FlashErase+0x1fc>
          {
            /* Dont erase it if it's already erased silly. */
            if ((FlashCheckIfBlockErased(fd, block, regions)) == 0)
    1a68:	e0bffd17 	ldw	r2,-12(fp)
    1a6c:	1007883a 	mov	r3,r2
    1a70:	e0bff217 	ldw	r2,-56(fp)
    1a74:	100d883a 	mov	r6,r2
    1a78:	180b883a 	mov	r5,r3
    1a7c:	e13fe517 	ldw	r4,-108(fp)
    1a80:	0000e000 	call	e00 <FlashCheckIfBlockErased>
    1a84:	1000191e 	bne	r2,zero,1aec <FlashErase+0x1c8>
            {
              test_offset = (regions->offset + (block * regions->block_size));
    1a88:	e0bff217 	ldw	r2,-56(fp)
    1a8c:	10800017 	ldw	r2,0(r2)
    1a90:	1021883a 	mov	r16,r2
    1a94:	e0bff217 	ldw	r2,-56(fp)
    1a98:	10800317 	ldw	r2,12(r2)
    1a9c:	1007883a 	mov	r3,r2
    1aa0:	e0bffd17 	ldw	r2,-12(fp)
    1aa4:	100b883a 	mov	r5,r2
    1aa8:	1809883a 	mov	r4,r3
    1aac:	00024440 	call	2444 <__mulsi3>
    1ab0:	8085883a 	add	r2,r16,r2
    1ab4:	e0bfe715 	stw	r2,-100(fp)
              alt_erase_flash_block(fd, test_offset, regions->block_size);
    1ab8:	e0bff217 	ldw	r2,-56(fp)
    1abc:	10800317 	ldw	r2,12(r2)
    1ac0:	e0ffe517 	ldw	r3,-108(fp)
    1ac4:	e0ffe615 	stw	r3,-104(fp)
    1ac8:	e0ffe717 	ldw	r3,-100(fp)
    1acc:	e0ffec15 	stw	r3,-80(fp)
    1ad0:	e0bfed15 	stw	r2,-76(fp)
 */
static __inline__ int __attribute__ ((always_inline)) alt_erase_flash_block( 
                                      alt_flash_fd* fd, int offset, int length) 
{
  int ret_code;
  ret_code = fd->erase_block( fd, offset );
    1ad4:	e0bfe617 	ldw	r2,-104(fp)
    1ad8:	10800817 	ldw	r2,32(r2)
    1adc:	e17fec17 	ldw	r5,-80(fp)
    1ae0:	e13fe617 	ldw	r4,-104(fp)
    1ae4:	103ee83a 	callr	r2
    1ae8:	e0bfee15 	stw	r2,-72(fp)
            }
            /* Just a simple progress meter so we dont get bored waiting for the flash to erase. */
            printf(".");
    1aec:	01000b84 	movi	r4,46
    1af0:	0002fd00 	call	2fd0 <putchar>
            if(((block + 1) % 80) == 0)
    1af4:	e0bffd17 	ldw	r2,-12(fp)
    1af8:	10800044 	addi	r2,r2,1
    1afc:	01401404 	movi	r5,80
    1b00:	1009883a 	mov	r4,r2
    1b04:	00023ec0 	call	23ec <__umodsi3>
    1b08:	1000021e 	bne	r2,zero,1b14 <FlashErase+0x1f0>
            {
              printf("\n");
    1b0c:	01000284 	movi	r4,10
    1b10:	0002fd00 	call	2fd0 <putchar>
        
        if(entry[0] == 'y')
        {
          /* Erase all blocks */
          printf(" -Erasing %d blocks.  Please Wait.\n", (regions->number_of_blocks));
          for(block = 0; block < regions->number_of_blocks; block++)
    1b14:	e0bffd17 	ldw	r2,-12(fp)
    1b18:	10800044 	addi	r2,r2,1
    1b1c:	e0bffd15 	stw	r2,-12(fp)
    1b20:	e0bff217 	ldw	r2,-56(fp)
    1b24:	10800217 	ldw	r2,8(r2)
    1b28:	1007883a 	mov	r3,r2
    1b2c:	e0bffd17 	ldw	r2,-12(fp)
    1b30:	10ffcd36 	bltu	r2,r3,1a68 <__alt_mem_epcs_flash_controller_0+0xff800a68>
            if(((block + 1) % 80) == 0)
            {
              printf("\n");
            }
          }
          printf("\n -All Blocks Erased.\n");
    1b34:	010000b4 	movhi	r4,2
    1b38:	21368904 	addi	r4,r4,-9692
    1b3c:	00030a80 	call	30a8 <puts>
    1b40:	00000306 	br	1b50 <FlashErase+0x22c>
        }
        else
        {
          printf("Erased zero blocks.\n");
    1b44:	010000b4 	movhi	r4,2
    1b48:	21368f04 	addi	r4,r4,-9668
    1b4c:	00030a80 	call	30a8 <puts>
        }
      }
      /* Just erase one block */
      if(sscanf(entry, "%d\n", &block))
    1b50:	e0fffd04 	addi	r3,fp,-12
    1b54:	e0bff404 	addi	r2,fp,-48
    1b58:	180d883a 	mov	r6,r3
    1b5c:	014000b4 	movhi	r5,2
    1b60:	29769404 	addi	r5,r5,-9648
    1b64:	1009883a 	mov	r4,r2
    1b68:	00031980 	call	3198 <sscanf>
    1b6c:	10003126 	beq	r2,zero,1c34 <FlashErase+0x310>
      {
        if ((block >= 0) && (block <= (regions->number_of_blocks - 1)))
    1b70:	e0bff217 	ldw	r2,-56(fp)
    1b74:	10800217 	ldw	r2,8(r2)
    1b78:	10bfffc4 	addi	r2,r2,-1
    1b7c:	1007883a 	mov	r3,r2
    1b80:	e0bffd17 	ldw	r2,-12(fp)
    1b84:	18801f36 	bltu	r3,r2,1c04 <FlashErase+0x2e0>
        {
          test_offset = (regions->offset + (block * regions->block_size));
    1b88:	e0bff217 	ldw	r2,-56(fp)
    1b8c:	10800017 	ldw	r2,0(r2)
    1b90:	1021883a 	mov	r16,r2
    1b94:	e0bff217 	ldw	r2,-56(fp)
    1b98:	10800317 	ldw	r2,12(r2)
    1b9c:	1007883a 	mov	r3,r2
    1ba0:	e0bffd17 	ldw	r2,-12(fp)
    1ba4:	100b883a 	mov	r5,r2
    1ba8:	1809883a 	mov	r4,r3
    1bac:	00024440 	call	2444 <__mulsi3>
    1bb0:	8085883a 	add	r2,r16,r2
    1bb4:	e0bfe715 	stw	r2,-100(fp)
          alt_erase_flash_block(fd, test_offset, regions->block_size);
    1bb8:	e0bff217 	ldw	r2,-56(fp)
    1bbc:	10800317 	ldw	r2,12(r2)
    1bc0:	e0ffe517 	ldw	r3,-108(fp)
    1bc4:	e0ffe815 	stw	r3,-96(fp)
    1bc8:	e0ffe717 	ldw	r3,-100(fp)
    1bcc:	e0ffef15 	stw	r3,-68(fp)
    1bd0:	e0bff015 	stw	r2,-64(fp)
    1bd4:	e0bfe817 	ldw	r2,-96(fp)
    1bd8:	10800817 	ldw	r2,32(r2)
    1bdc:	e17fef17 	ldw	r5,-68(fp)
    1be0:	e13fe817 	ldw	r4,-96(fp)
    1be4:	103ee83a 	callr	r2
    1be8:	e0bff115 	stw	r2,-60(fp)
          printf(" -Block %d erased.\n", block);
    1bec:	e0bffd17 	ldw	r2,-12(fp)
    1bf0:	100b883a 	mov	r5,r2
    1bf4:	010000b4 	movhi	r4,2
    1bf8:	21369504 	addi	r4,r4,-9644
    1bfc:	0002f8c0 	call	2f8c <printf>
    1c00:	00000c06 	br	1c34 <FlashErase+0x310>
        }
        else
        {
          printf(" -Block number entered is %d\n", block);
    1c04:	e0bffd17 	ldw	r2,-12(fp)
    1c08:	100b883a 	mov	r5,r2
    1c0c:	010000b4 	movhi	r4,2
    1c10:	21369a04 	addi	r4,r4,-9624
    1c14:	0002f8c0 	call	2f8c <printf>
          printf(" -Block number must be between 0 and %d.\n", (regions->number_of_blocks - 1));
    1c18:	e0bff217 	ldw	r2,-56(fp)
    1c1c:	10800217 	ldw	r2,8(r2)
    1c20:	10bfffc4 	addi	r2,r2,-1
    1c24:	100b883a 	mov	r5,r2
    1c28:	010000b4 	movhi	r4,2
    1c2c:	2136a204 	addi	r4,r4,-9592
    1c30:	0002f8c0 	call	2f8c <printf>
        }
      }
    }
    printf(" -Closing flash \"%s\".\n", flashname);
    1c34:	e0bff504 	addi	r2,fp,-44
    1c38:	100b883a 	mov	r5,r2
    1c3c:	010000b4 	movhi	r4,2
    1c40:	2136ad04 	addi	r4,r4,-9548
    1c44:	0002f8c0 	call	2f8c <printf>
    alt_flash_close_dev(fd);
    1c48:	e13fe517 	ldw	r4,-108(fp)
    1c4c:	0019a200 	call	19a20 <alt_flash_close_dev>
  }
}
    1c50:	0001883a 	nop
    1c54:	e6ffff04 	addi	sp,fp,-4
    1c58:	dfc00217 	ldw	ra,8(sp)
    1c5c:	df000117 	ldw	fp,4(sp)
    1c60:	dc000017 	ldw	r16,0(sp)
    1c64:	dec00304 	addi	sp,sp,12
    1c68:	f800283a 	ret

00001c6c <FlashFindErasedBlocks>:
*           parameter is SHOWMAP, the function prints a list of 
*           all blocks, indicating which ones are erased.
* 
******************************************************************/
static int FlashFindErasedBlocks(alt_flash_fd* fd, flash_region* regions, int number_of_regions, int mode)
{ 
    1c6c:	defff304 	addi	sp,sp,-52
    1c70:	dfc00c15 	stw	ra,48(sp)
    1c74:	df000b15 	stw	fp,44(sp)
    1c78:	dc000a15 	stw	r16,40(sp)
    1c7c:	df000b04 	addi	fp,sp,44
    1c80:	e13ffb15 	stw	r4,-20(fp)
    1c84:	e17ffc15 	stw	r5,-16(fp)
    1c88:	e1bffd15 	stw	r6,-12(fp)
    1c8c:	e1fffe15 	stw	r7,-8(fp)
  int region_index, block_index;
  int block_erased = 0x0;
    1c90:	e03ff715 	stw	zero,-36(fp)
  char entry[5];
  unsigned int block;

  /* Currently only supports flashes with 1 region, but region loop is left here for possible */
  /* future implementation */
  for(region_index = 0; region_index < number_of_regions; region_index++)
    1c94:	e03ff515 	stw	zero,-44(fp)
    1c98:	00008a06 	br	1ec4 <FlashFindErasedBlocks+0x258>
  {
    printf(" -Checking Region %d for erased blocks.\n", region_index);
    1c9c:	e17ff517 	ldw	r5,-44(fp)
    1ca0:	010000b4 	movhi	r4,2
    1ca4:	2136b304 	addi	r4,r4,-9524
    1ca8:	0002f8c0 	call	2f8c <printf>
    /* SHOWMAP mode has a legend reminding us what little plus and minus signs mean */
    if(mode == SHOWMAP)
    1cac:	e0bffe17 	ldw	r2,-8(fp)
    1cb0:	10800098 	cmpnei	r2,r2,2
    1cb4:	1000061e 	bne	r2,zero,1cd0 <FlashFindErasedBlocks+0x64>
    {
      printf("            erased block = '-'\n");     
    1cb8:	010000b4 	movhi	r4,2
    1cbc:	2136be04 	addi	r4,r4,-9480
    1cc0:	00030a80 	call	30a8 <puts>
      printf("          unerased block = '+'\n\n");     
    1cc4:	010000b4 	movhi	r4,2
    1cc8:	2136c604 	addi	r4,r4,-9448
    1ccc:	00030a80 	call	30a8 <puts>
    }
    /* Check those blocks. */
    for(block_index = 0; block_index < (regions->number_of_blocks); block_index++)
    1cd0:	e03ff615 	stw	zero,-40(fp)
    1cd4:	00003206 	br	1da0 <FlashFindErasedBlocks+0x134>
    {
      block_erased = FlashCheckIfBlockErased(fd, block_index, regions);
    1cd8:	e1bffc17 	ldw	r6,-16(fp)
    1cdc:	e17ff617 	ldw	r5,-40(fp)
    1ce0:	e13ffb17 	ldw	r4,-20(fp)
    1ce4:	0000e000 	call	e00 <FlashCheckIfBlockErased>
    1ce8:	e0bff715 	stw	r2,-36(fp)
      /* If it's erased and were running in TEST mode, we're done */
      if(block_erased && (mode == TEST))
    1cec:	e0bff717 	ldw	r2,-36(fp)
    1cf0:	10000326 	beq	r2,zero,1d00 <FlashFindErasedBlocks+0x94>
    1cf4:	e0bffe17 	ldw	r2,-8(fp)
    1cf8:	10800060 	cmpeqi	r2,r2,1
    1cfc:	10002c1e 	bne	r2,zero,1db0 <FlashFindErasedBlocks+0x144>
        break;
      /* If in SHOWMAP mode, mark block as either erased or not-erased. */
      else if(block_erased && (mode == SHOWMAP))
    1d00:	e0bff717 	ldw	r2,-36(fp)
    1d04:	10001126 	beq	r2,zero,1d4c <FlashFindErasedBlocks+0xe0>
    1d08:	e0bffe17 	ldw	r2,-8(fp)
    1d0c:	10800098 	cmpnei	r2,r2,2
    1d10:	10000e1e 	bne	r2,zero,1d4c <FlashFindErasedBlocks+0xe0>
        printf("  Block %3d @ 0x%8.8X:\t-\n", block_index, (regions->offset + (block_index * regions->block_size)));           
    1d14:	e0bffc17 	ldw	r2,-16(fp)
    1d18:	14000017 	ldw	r16,0(r2)
    1d1c:	e0bffc17 	ldw	r2,-16(fp)
    1d20:	10800317 	ldw	r2,12(r2)
    1d24:	e17ff617 	ldw	r5,-40(fp)
    1d28:	1009883a 	mov	r4,r2
    1d2c:	00024440 	call	2444 <__mulsi3>
    1d30:	8085883a 	add	r2,r16,r2
    1d34:	100d883a 	mov	r6,r2
    1d38:	e17ff617 	ldw	r5,-40(fp)
    1d3c:	010000b4 	movhi	r4,2
    1d40:	2136ce04 	addi	r4,r4,-9416
    1d44:	0002f8c0 	call	2f8c <printf>
    1d48:	00001206 	br	1d94 <FlashFindErasedBlocks+0x128>
      else if(!block_erased && (mode == SHOWMAP))
    1d4c:	e0bff717 	ldw	r2,-36(fp)
    1d50:	1000101e 	bne	r2,zero,1d94 <FlashFindErasedBlocks+0x128>
    1d54:	e0bffe17 	ldw	r2,-8(fp)
    1d58:	10800098 	cmpnei	r2,r2,2
    1d5c:	10000d1e 	bne	r2,zero,1d94 <FlashFindErasedBlocks+0x128>
        printf("  Block %3d @ 0x%8.8X:\t+\n", block_index, (regions->offset + (block_index * regions->block_size)));           
    1d60:	e0bffc17 	ldw	r2,-16(fp)
    1d64:	14000017 	ldw	r16,0(r2)
    1d68:	e0bffc17 	ldw	r2,-16(fp)
    1d6c:	10800317 	ldw	r2,12(r2)
    1d70:	e17ff617 	ldw	r5,-40(fp)
    1d74:	1009883a 	mov	r4,r2
    1d78:	00024440 	call	2444 <__mulsi3>
    1d7c:	8085883a 	add	r2,r16,r2
    1d80:	100d883a 	mov	r6,r2
    1d84:	e17ff617 	ldw	r5,-40(fp)
    1d88:	010000b4 	movhi	r4,2
    1d8c:	2136d504 	addi	r4,r4,-9388
    1d90:	0002f8c0 	call	2f8c <printf>
    {
      printf("            erased block = '-'\n");     
      printf("          unerased block = '+'\n\n");     
    }
    /* Check those blocks. */
    for(block_index = 0; block_index < (regions->number_of_blocks); block_index++)
    1d94:	e0bff617 	ldw	r2,-40(fp)
    1d98:	10800044 	addi	r2,r2,1
    1d9c:	e0bff615 	stw	r2,-40(fp)
    1da0:	e0bffc17 	ldw	r2,-16(fp)
    1da4:	10800217 	ldw	r2,8(r2)
    1da8:	e0fff617 	ldw	r3,-40(fp)
    1dac:	18bfca16 	blt	r3,r2,1cd8 <__alt_mem_epcs_flash_controller_0+0xff800cd8>
        printf("  Block %3d @ 0x%8.8X:\t-\n", block_index, (regions->offset + (block_index * regions->block_size)));           
      else if(!block_erased && (mode == SHOWMAP))
        printf("  Block %3d @ 0x%8.8X:\t+\n", block_index, (regions->offset + (block_index * regions->block_size)));           
    }
    /* Special case if no blocks are erased (TEST mode only)*/
    if(( block_index == ( regions->number_of_blocks )) && ( mode == TEST ))
    1db0:	e0bffc17 	ldw	r2,-16(fp)
    1db4:	10c00217 	ldw	r3,8(r2)
    1db8:	e0bff617 	ldw	r2,-40(fp)
    1dbc:	1880391e 	bne	r3,r2,1ea4 <FlashFindErasedBlocks+0x238>
    1dc0:	e0bffe17 	ldw	r2,-8(fp)
    1dc4:	10800058 	cmpnei	r2,r2,1
    1dc8:	1000361e 	bne	r2,zero,1ea4 <FlashFindErasedBlocks+0x238>
    {
      printf(" -Found no erased blocks.  Please enter the number of the block\n");
    1dcc:	010000b4 	movhi	r4,2
    1dd0:	2136dc04 	addi	r4,r4,-9360
    1dd4:	00030a80 	call	30a8 <puts>
      printf("  you would like to test.  Enter 'q' to quit without testing flash.\n");
    1dd8:	010000b4 	movhi	r4,2
    1ddc:	2136ec04 	addi	r4,r4,-9296
    1de0:	00030a80 	call	30a8 <puts>
      printf(" -> ");
    1de4:	010000b4 	movhi	r4,2
    1de8:	21367704 	addi	r4,r4,-9764
    1dec:	0002f8c0 	call	2f8c <printf>

      GetInputString( entry, sizeof(entry), stdin );
    1df0:	d0a00117 	ldw	r2,-32764(gp)
    1df4:	10c00117 	ldw	r3,4(r2)
    1df8:	e0bff804 	addi	r2,fp,-32
    1dfc:	180d883a 	mov	r6,r3
    1e00:	01400144 	movi	r5,5
    1e04:	1009883a 	mov	r4,r2
    1e08:	000038c0 	call	38c <GetInputString>

      if(entry[0] == 'q')
    1e0c:	e0bff803 	ldbu	r2,-32(fp)
    1e10:	10803fcc 	andi	r2,r2,255
    1e14:	1080201c 	xori	r2,r2,128
    1e18:	10bfe004 	addi	r2,r2,-128
    1e1c:	10801c58 	cmpnei	r2,r2,113
    1e20:	1000031e 	bne	r2,zero,1e30 <FlashFindErasedBlocks+0x1c4>
      {
    		block_index = QUIT_WITHOUT_TESTING;
    1e24:	00bfffc4 	movi	r2,-1
    1e28:	e0bff615 	stw	r2,-40(fp)
    		break;
    1e2c:	00002a06 	br	1ed8 <FlashFindErasedBlocks+0x26c>
    	}
      else if(sscanf(entry, "%d\n", &block))
    1e30:	e0fffa04 	addi	r3,fp,-24
    1e34:	e0bff804 	addi	r2,fp,-32
    1e38:	180d883a 	mov	r6,r3
    1e3c:	014000b4 	movhi	r5,2
    1e40:	29769404 	addi	r5,r5,-9648
    1e44:	1009883a 	mov	r4,r2
    1e48:	00031980 	call	3198 <sscanf>
    1e4c:	10001526 	beq	r2,zero,1ea4 <FlashFindErasedBlocks+0x238>
      {
        if ((block >= 0) && (block <= (regions->number_of_blocks - 1)))
    1e50:	e0bffc17 	ldw	r2,-16(fp)
    1e54:	10800217 	ldw	r2,8(r2)
    1e58:	10bfffc4 	addi	r2,r2,-1
    1e5c:	1007883a 	mov	r3,r2
    1e60:	e0bffa17 	ldw	r2,-24(fp)
    1e64:	18800336 	bltu	r3,r2,1e74 <FlashFindErasedBlocks+0x208>
        {
        	block_index = block;
    1e68:	e0bffa17 	ldw	r2,-24(fp)
    1e6c:	e0bff615 	stw	r2,-40(fp)
        	break;
    1e70:	00001906 	br	1ed8 <FlashFindErasedBlocks+0x26c>
        }
        else 
        {
          printf(" -Block number entered is %d\n", block);
    1e74:	e0bffa17 	ldw	r2,-24(fp)
    1e78:	100b883a 	mov	r5,r2
    1e7c:	010000b4 	movhi	r4,2
    1e80:	21369a04 	addi	r4,r4,-9624
    1e84:	0002f8c0 	call	2f8c <printf>
          printf(" -Block number must be between 0 and %d.\n", (regions->number_of_blocks - 1));
    1e88:	e0bffc17 	ldw	r2,-16(fp)
    1e8c:	10800217 	ldw	r2,8(r2)
    1e90:	10bfffc4 	addi	r2,r2,-1
    1e94:	100b883a 	mov	r5,r2
    1e98:	010000b4 	movhi	r4,2
    1e9c:	2136a204 	addi	r4,r4,-9592
    1ea0:	0002f8c0 	call	2f8c <printf>
        }
      }    	
    }
    /* Break out of the region loop if we've found an erased block to test. */
    if(block_erased && (mode == TEST))
    1ea4:	e0bff717 	ldw	r2,-36(fp)
    1ea8:	10000326 	beq	r2,zero,1eb8 <FlashFindErasedBlocks+0x24c>
    1eac:	e0bffe17 	ldw	r2,-8(fp)
    1eb0:	10800058 	cmpnei	r2,r2,1
    1eb4:	10000726 	beq	r2,zero,1ed4 <FlashFindErasedBlocks+0x268>
  char entry[5];
  unsigned int block;

  /* Currently only supports flashes with 1 region, but region loop is left here for possible */
  /* future implementation */
  for(region_index = 0; region_index < number_of_regions; region_index++)
    1eb8:	e0bff517 	ldw	r2,-44(fp)
    1ebc:	10800044 	addi	r2,r2,1
    1ec0:	e0bff515 	stw	r2,-44(fp)
    1ec4:	e0fff517 	ldw	r3,-44(fp)
    1ec8:	e0bffd17 	ldw	r2,-12(fp)
    1ecc:	18bf7316 	blt	r3,r2,1c9c <__alt_mem_epcs_flash_controller_0+0xff800c9c>
    1ed0:	00000106 	br	1ed8 <FlashFindErasedBlocks+0x26c>
        }
      }    	
    }
    /* Break out of the region loop if we've found an erased block to test. */
    if(block_erased && (mode == TEST))
      break;
    1ed4:	0001883a 	nop
  }

  return block_index;
    1ed8:	e0bff617 	ldw	r2,-40(fp)
}
    1edc:	e6ffff04 	addi	sp,fp,-4
    1ee0:	dfc00217 	ldw	ra,8(sp)
    1ee4:	df000117 	ldw	fp,4(sp)
    1ee8:	dc000017 	ldw	r16,0(sp)
    1eec:	dec00304 	addi	sp,sp,12
    1ef0:	f800283a 	ret

00001ef4 <TestFlash>:
*           indicates which ones are erased.  The flash is closed
*           at the end of the function.
* 
******************************************************************/
static void TestFlash(int mode, int flash_type)
{
    1ef4:	deffea04 	addi	sp,sp,-88
    1ef8:	dfc01515 	stw	ra,84(sp)
    1efc:	df001415 	stw	fp,80(sp)
    1f00:	dc001315 	stw	r16,76(sp)
    1f04:	df001404 	addi	fp,sp,80
    1f08:	e13ffd15 	stw	r4,-12(fp)
    1f0c:	e17ffe15 	stw	r5,-8(fp)
  alt_flash_fd* fd;
  int number_of_regions;
  int block;
  flash_region* regions;
  int ret_code = 0x0;
    1f10:	e03fec15 	stw	zero,-80(fp)
  char entry[4];
  char flashname[30];
  
  ret_code = GetFlashName(flashname, flash_type);
    1f14:	e0bff504 	addi	r2,fp,-44
    1f18:	e17ffe17 	ldw	r5,-8(fp)
    1f1c:	1009883a 	mov	r4,r2
    1f20:	00017a40 	call	17a4 <GetFlashName>
    1f24:	e0bfec15 	stw	r2,-80(fp)

  fd = alt_flash_open_dev(flashname);
    1f28:	e0bff504 	addi	r2,fp,-44
    1f2c:	1009883a 	mov	r4,r2
    1f30:	00199b80 	call	199b8 <alt_flash_open_dev>
    1f34:	e0bfed15 	stw	r2,-76(fp)
  if (fd)
    1f38:	e0bfed17 	ldw	r2,-76(fp)
    1f3c:	10005826 	beq	r2,zero,20a0 <TestFlash+0x1ac>
  {
    printf(" -Successfully opened %s\n", flashname);
    1f40:	e0bff504 	addi	r2,fp,-44
    1f44:	100b883a 	mov	r5,r2
    1f48:	010000b4 	movhi	r4,2
    1f4c:	2136fd04 	addi	r4,r4,-9228
    1f50:	0002f8c0 	call	2f8c <printf>
    1f54:	e0bfed17 	ldw	r2,-76(fp)
    1f58:	e0bfef15 	stw	r2,-68(fp)
    1f5c:	e0bff304 	addi	r2,fp,-52
    1f60:	e0bff015 	stw	r2,-64(fp)
    1f64:	e0bff204 	addi	r2,fp,-56
    1f68:	e0bff115 	stw	r2,-60(fp)
 */
static __inline__ int __attribute__ ((always_inline)) alt_get_flash_info( 
                                      alt_flash_fd* fd, flash_region** info, 
                                      int* number_of_regions)
{
  return fd->get_info( fd, info, number_of_regions);
    1f6c:	e0bfef17 	ldw	r2,-68(fp)
    1f70:	10800717 	ldw	r2,28(r2)
    1f74:	e1bff117 	ldw	r6,-60(fp)
    1f78:	e17ff017 	ldw	r5,-64(fp)
    1f7c:	e13fef17 	ldw	r4,-68(fp)
    1f80:	103ee83a 	callr	r2
    
    /* Get some useful info about the flash */
    ret_code = alt_get_flash_info(fd, &regions, &number_of_regions);
    1f84:	e0bfec15 	stw	r2,-80(fp)
      
    if (!ret_code)
    1f88:	e0bfec17 	ldw	r2,-80(fp)
    1f8c:	1000491e 	bne	r2,zero,20b4 <TestFlash+0x1c0>
    {
      printf(" -Region 0 contains %d blocks.\n", regions->number_of_blocks);
    1f90:	e0bff317 	ldw	r2,-52(fp)
    1f94:	10800217 	ldw	r2,8(r2)
    1f98:	100b883a 	mov	r5,r2
    1f9c:	010000b4 	movhi	r4,2
    1fa0:	21370404 	addi	r4,r4,-9200
    1fa4:	0002f8c0 	call	2f8c <printf>
      
      block = FlashFindErasedBlocks(fd, regions, number_of_regions, mode);
    1fa8:	e0bff317 	ldw	r2,-52(fp)
    1fac:	e0fff217 	ldw	r3,-56(fp)
    1fb0:	e1fffd17 	ldw	r7,-12(fp)
    1fb4:	180d883a 	mov	r6,r3
    1fb8:	100b883a 	mov	r5,r2
    1fbc:	e13fed17 	ldw	r4,-76(fp)
    1fc0:	0001c6c0 	call	1c6c <FlashFindErasedBlocks>
    1fc4:	e0bfee15 	stw	r2,-72(fp)

      /* If we're in TEST mode, ask if this block is okay to test. */
      if(( mode == TEST ) && ( block != QUIT_WITHOUT_TESTING ))
    1fc8:	e0bffd17 	ldw	r2,-12(fp)
    1fcc:	10800058 	cmpnei	r2,r2,1
    1fd0:	1000381e 	bne	r2,zero,20b4 <TestFlash+0x1c0>
    1fd4:	e0bfee17 	ldw	r2,-72(fp)
    1fd8:	10bfffe0 	cmpeqi	r2,r2,-1
    1fdc:	1000351e 	bne	r2,zero,20b4 <TestFlash+0x1c0>
      {
        printf(" -Block %d, at address 0x%X identified.\n", block, (regions->offset + (block * regions->block_size)));
    1fe0:	e0bff317 	ldw	r2,-52(fp)
    1fe4:	14000017 	ldw	r16,0(r2)
    1fe8:	e0bff317 	ldw	r2,-52(fp)
    1fec:	10800317 	ldw	r2,12(r2)
    1ff0:	e17fee17 	ldw	r5,-72(fp)
    1ff4:	1009883a 	mov	r4,r2
    1ff8:	00024440 	call	2444 <__mulsi3>
    1ffc:	8085883a 	add	r2,r16,r2
    2000:	100d883a 	mov	r6,r2
    2004:	e17fee17 	ldw	r5,-72(fp)
    2008:	010000b4 	movhi	r4,2
    200c:	21370c04 	addi	r4,r4,-9168
    2010:	0002f8c0 	call	2f8c <printf>
        printf(" -Would you like to test this block? (y/n)");
    2014:	010000b4 	movhi	r4,2
    2018:	21371704 	addi	r4,r4,-9124
    201c:	0002f8c0 	call	2f8c <printf>

        GetInputString(entry, sizeof(entry), stdin);
    2020:	d0a00117 	ldw	r2,-32764(gp)
    2024:	10c00117 	ldw	r3,4(r2)
    2028:	e0bff404 	addi	r2,fp,-48
    202c:	180d883a 	mov	r6,r3
    2030:	01400104 	movi	r5,4
    2034:	1009883a 	mov	r4,r2
    2038:	000038c0 	call	38c <GetInputString>

        if ( entry[0] == 'y' && entry[1] == '\n' )
    203c:	e0bff403 	ldbu	r2,-48(fp)
    2040:	10803fcc 	andi	r2,r2,255
    2044:	1080201c 	xori	r2,r2,128
    2048:	10bfe004 	addi	r2,r2,-128
    204c:	10801e58 	cmpnei	r2,r2,121
    2050:	1000181e 	bne	r2,zero,20b4 <TestFlash+0x1c0>
    2054:	e0bff443 	ldbu	r2,-47(fp)
    2058:	10803fcc 	andi	r2,r2,255
    205c:	1080201c 	xori	r2,r2,128
    2060:	10bfe004 	addi	r2,r2,-128
    2064:	10800298 	cmpnei	r2,r2,10
    2068:	1000121e 	bne	r2,zero,20b4 <TestFlash+0x1c0>
        {
          /* Test that Flash! */
          FlashRunTests(fd, block, regions);
    206c:	e0bff317 	ldw	r2,-52(fp)
    2070:	100d883a 	mov	r6,r2
    2074:	e17fee17 	ldw	r5,-72(fp)
    2078:	e13fed17 	ldw	r4,-76(fp)
    207c:	000166c0 	call	166c <FlashRunTests>
          printf(" -Closing flash device \"%s\".\n", flashname);
    2080:	e0bff504 	addi	r2,fp,-44
    2084:	100b883a 	mov	r5,r2
    2088:	010000b4 	movhi	r4,2
    208c:	21372204 	addi	r4,r4,-9080
    2090:	0002f8c0 	call	2f8c <printf>
          alt_flash_close_dev(fd);
    2094:	e13fed17 	ldw	r4,-76(fp)
    2098:	0019a200 	call	19a20 <alt_flash_close_dev>
  }
  else
  {
    printf(" -ERROR: Could not open %s\n", flashname);   
  }
}
    209c:	00000506 	br	20b4 <TestFlash+0x1c0>
      }
    }
  }
  else
  {
    printf(" -ERROR: Could not open %s\n", flashname);   
    20a0:	e0bff504 	addi	r2,fp,-44
    20a4:	100b883a 	mov	r5,r2
    20a8:	010000b4 	movhi	r4,2
    20ac:	21372a04 	addi	r4,r4,-9048
    20b0:	0002f8c0 	call	2f8c <printf>
  }
}
    20b4:	0001883a 	nop
    20b8:	e6ffff04 	addi	sp,fp,-4
    20bc:	dfc00217 	ldw	ra,8(sp)
    20c0:	df000117 	ldw	fp,4(sp)
    20c4:	dc000017 	ldw	r16,0(sp)
    20c8:	dec00304 	addi	sp,sp,12
    20cc:	f800283a 	ret

000020d0 <TopMenu>:
*
*  Purpose: Generates the top level menu.
* 
******************************************************************/
static int TopMenu( void )
{
    20d0:	defffd04 	addi	sp,sp,-12
    20d4:	dfc00215 	stw	ra,8(sp)
    20d8:	df000115 	stw	fp,4(sp)
    20dc:	df000104 	addi	fp,sp,4
  char ch;

  /* Print the top-level menu to stdout */
  while (1)
  {
    MenuBegin("      Memory Test Main Menu");
    20e0:	010000b4 	movhi	r4,2
    20e4:	21373104 	addi	r4,r4,-9020
    20e8:	00002e80 	call	2e8 <MenuBegin>
    MenuItem( 'a', "Test RAM" );
    20ec:	014000b4 	movhi	r5,2
    20f0:	29773804 	addi	r5,r5,-8992
    20f4:	01001844 	movi	r4,97
    20f8:	00003400 	call	340 <MenuItem>
    MenuItem( 'b', "Test Flash");
    20fc:	014000b4 	movhi	r5,2
    2100:	29773b04 	addi	r5,r5,-8980
    2104:	01001884 	movi	r4,98
    2108:	00003400 	call	340 <MenuItem>
#ifdef EPCS_CONTROLLER_NAME    
    MenuItem( 'c', "Test EPCS Serial Flash");
    ch = MenuEnd( 'a', 'c' );    
#else
    ch = MenuEnd( 'a', 'b' );
    210c:	01401884 	movi	r5,98
    2110:	01001844 	movi	r4,97
    2114:	000041c0 	call	41c <MenuEnd>
    2118:	e0bfff05 	stb	r2,-4(fp)
#endif /* EPCS_CONTROLLER_NAME */

    switch(ch)
    211c:	e0bfff07 	ldb	r2,-4(fp)
    2120:	10bfe7c4 	addi	r2,r2,-97
    2124:	10c00468 	cmpgeui	r3,r2,17
    2128:	1800241e 	bne	r3,zero,21bc <TopMenu+0xec>
    212c:	100690ba 	slli	r3,r2,2
    2130:	00800034 	movhi	r2,0
    2134:	10885104 	addi	r2,r2,8516
    2138:	1885883a 	add	r2,r3,r2
    213c:	10800017 	ldw	r2,0(r2)
    2140:	1000683a 	jmp	r2
    2144:	00002188 	cmpgei	zero,zero,134
    2148:	00002190 	cmplti	zero,zero,134
    214c:	000021bc 	xorhi	zero,zero,134
    2150:	000021bc 	xorhi	zero,zero,134
    2154:	000021a0 	cmpeqi	zero,zero,134
    2158:	000021bc 	xorhi	zero,zero,134
    215c:	000021bc 	xorhi	zero,zero,134
    2160:	000021bc 	xorhi	zero,zero,134
    2164:	000021bc 	xorhi	zero,zero,134
    2168:	000021bc 	xorhi	zero,zero,134
    216c:	000021bc 	xorhi	zero,zero,134
    2170:	000021bc 	xorhi	zero,zero,134
    2174:	000021ac 	andhi	zero,zero,134
    2178:	000021bc 	xorhi	zero,zero,134
    217c:	000021bc 	xorhi	zero,zero,134
    2180:	000021bc 	xorhi	zero,zero,134
    2184:	000021d4 	movui	zero,135
    {
      MenuCase('a',TestRam());
    2188:	0000c4c0 	call	c4c <TestRam>
    218c:	00001206 	br	21d8 <TopMenu+0x108>
      MenuCase('b',TestFlash(TEST, CFI));
    2190:	014000c4 	movi	r5,3
    2194:	01000044 	movi	r4,1
    2198:	0001ef40 	call	1ef4 <TestFlash>
    219c:	00000e06 	br	21d8 <TopMenu+0x108>
      MenuCase('e',FlashErase(CFI));       /* hidden option */
    21a0:	010000c4 	movi	r4,3
    21a4:	00019240 	call	1924 <FlashErase>
    21a8:	00000b06 	br	21d8 <TopMenu+0x108>
      MenuCase('m',TestFlash(SHOWMAP, CFI)); /* hidden option */
    21ac:	014000c4 	movi	r5,3
    21b0:	01000084 	movi	r4,2
    21b4:	0001ef40 	call	1ef4 <TestFlash>
    21b8:	00000706 	br	21d8 <TopMenu+0x108>
      MenuCase('c',TestFlash(TEST, EPCS));
      MenuCase('f',FlashErase(EPCS));       /* hidden option */
      MenuCase('s',TestFlash(SHOWMAP, EPCS)); /* hidden option */
#endif /* EPCS_CONTROLLER_NAME */
      case 'q':	break;
      default:	printf("\n -ERROR: %c is an invalid entry.  Please try again\n", ch); break;
    21bc:	e0bfff07 	ldb	r2,-4(fp)
    21c0:	100b883a 	mov	r5,r2
    21c4:	010000b4 	movhi	r4,2
    21c8:	21373e04 	addi	r4,r4,-8968
    21cc:	0002f8c0 	call	2f8c <printf>
    21d0:	00000106 	br	21d8 <TopMenu+0x108>
#ifdef EPCS_CONTROLLER_NAME    
      MenuCase('c',TestFlash(TEST, EPCS));
      MenuCase('f',FlashErase(EPCS));       /* hidden option */
      MenuCase('s',TestFlash(SHOWMAP, EPCS)); /* hidden option */
#endif /* EPCS_CONTROLLER_NAME */
      case 'q':	break;
    21d4:	0001883a 	nop
      default:	printf("\n -ERROR: %c is an invalid entry.  Please try again\n", ch); break;
    }
    if (ch == 'q')
    21d8:	e0bfff07 	ldb	r2,-4(fp)
    21dc:	10801c58 	cmpnei	r2,r2,113
    21e0:	10001026 	beq	r2,zero,2224 <TopMenu+0x154>
      break;
    printf("\nPress enter to continue...\n");
    21e4:	010000b4 	movhi	r4,2
    21e8:	21374c04 	addi	r4,r4,-8912
    21ec:	00030a80 	call	30a8 <puts>
    while( (( ch = getc(stdin)) != '\n' ) && ( ch != EOF ));
    21f0:	0001883a 	nop
    21f4:	d0a00117 	ldw	r2,-32764(gp)
    21f8:	10800117 	ldw	r2,4(r2)
    21fc:	1009883a 	mov	r4,r2
    2200:	00024dc0 	call	24dc <getc>
    2204:	e0bfff05 	stb	r2,-4(fp)
    2208:	e0bfff07 	ldb	r2,-4(fp)
    220c:	108002a0 	cmpeqi	r2,r2,10
    2210:	103fb31e 	bne	r2,zero,20e0 <__alt_mem_epcs_flash_controller_0+0xff8010e0>
    2214:	e0bfff07 	ldb	r2,-4(fp)
    2218:	10bfffd8 	cmpnei	r2,r2,-1
    221c:	103ff51e 	bne	r2,zero,21f4 <__alt_mem_epcs_flash_controller_0+0xff8011f4>

  }
    2220:	003faf06 	br	20e0 <__alt_mem_epcs_flash_controller_0+0xff8010e0>
#endif /* EPCS_CONTROLLER_NAME */
      case 'q':	break;
      default:	printf("\n -ERROR: %c is an invalid entry.  Please try again\n", ch); break;
    }
    if (ch == 'q')
      break;
    2224:	0001883a 	nop
    printf("\nPress enter to continue...\n");
    while( (( ch = getc(stdin)) != '\n' ) && ( ch != EOF ));

  }
  return (ch);
    2228:	e0bfff07 	ldb	r2,-4(fp)
}
    222c:	e037883a 	mov	sp,fp
    2230:	dfc00117 	ldw	ra,4(sp)
    2234:	df000017 	ldw	fp,0(sp)
    2238:	dec00204 	addi	sp,sp,8
    223c:	f800283a 	ret

00002240 <main>:
*  Purpose: Continually prints the menu and performs the actions
*           requested by the user.
* 
******************************************************************/
int main(void)
{
    2240:	defffd04 	addi	sp,sp,-12
    2244:	dfc00215 	stw	ra,8(sp)
    2248:	df000115 	stw	fp,4(sp)
    224c:	df000104 	addi	fp,sp,4

  int ch;

  /* Print the Header */
  MenuHeader();
    2250:	000026c0 	call	26c <MenuHeader>
  /* Print the menu and do what the user requests, until they hit 'q' */
  while (1)
  {
    ch = TopMenu();
    2254:	00020d00 	call	20d0 <TopMenu>
    2258:	e0bfff15 	stw	r2,-4(fp)
    if (ch == 'q')
    225c:	e0bfff17 	ldw	r2,-4(fp)
    2260:	10801c58 	cmpnei	r2,r2,113
    2264:	103ffb1e 	bne	r2,zero,2254 <__alt_mem_epcs_flash_controller_0+0xff801254>
    {
      printf( "\nExiting from Memory Test.\n");
    2268:	010000b4 	movhi	r4,2
    226c:	21375304 	addi	r4,r4,-8884
    2270:	00030a80 	call	30a8 <puts>
      break;
    2274:	0001883a 	nop
    }
  }
  return (0);
    2278:	0005883a 	mov	r2,zero
}
    227c:	e037883a 	mov	sp,fp
    2280:	dfc00117 	ldw	ra,4(sp)
    2284:	df000017 	ldw	fp,0(sp)
    2288:	dec00204 	addi	sp,sp,8
    228c:	f800283a 	ret

00002290 <__divsi3>:
    2290:	20001b16 	blt	r4,zero,2300 <__divsi3+0x70>
    2294:	000f883a 	mov	r7,zero
    2298:	28001616 	blt	r5,zero,22f4 <__divsi3+0x64>
    229c:	200d883a 	mov	r6,r4
    22a0:	29001a2e 	bgeu	r5,r4,230c <__divsi3+0x7c>
    22a4:	00800804 	movi	r2,32
    22a8:	00c00044 	movi	r3,1
    22ac:	00000106 	br	22b4 <__divsi3+0x24>
    22b0:	10000d26 	beq	r2,zero,22e8 <__divsi3+0x58>
    22b4:	294b883a 	add	r5,r5,r5
    22b8:	10bfffc4 	addi	r2,r2,-1
    22bc:	18c7883a 	add	r3,r3,r3
    22c0:	293ffb36 	bltu	r5,r4,22b0 <__alt_mem_epcs_flash_controller_0+0xff8012b0>
    22c4:	0005883a 	mov	r2,zero
    22c8:	18000726 	beq	r3,zero,22e8 <__divsi3+0x58>
    22cc:	0005883a 	mov	r2,zero
    22d0:	31400236 	bltu	r6,r5,22dc <__divsi3+0x4c>
    22d4:	314dc83a 	sub	r6,r6,r5
    22d8:	10c4b03a 	or	r2,r2,r3
    22dc:	1806d07a 	srli	r3,r3,1
    22e0:	280ad07a 	srli	r5,r5,1
    22e4:	183ffa1e 	bne	r3,zero,22d0 <__alt_mem_epcs_flash_controller_0+0xff8012d0>
    22e8:	38000126 	beq	r7,zero,22f0 <__divsi3+0x60>
    22ec:	0085c83a 	sub	r2,zero,r2
    22f0:	f800283a 	ret
    22f4:	014bc83a 	sub	r5,zero,r5
    22f8:	39c0005c 	xori	r7,r7,1
    22fc:	003fe706 	br	229c <__alt_mem_epcs_flash_controller_0+0xff80129c>
    2300:	0109c83a 	sub	r4,zero,r4
    2304:	01c00044 	movi	r7,1
    2308:	003fe306 	br	2298 <__alt_mem_epcs_flash_controller_0+0xff801298>
    230c:	00c00044 	movi	r3,1
    2310:	003fee06 	br	22cc <__alt_mem_epcs_flash_controller_0+0xff8012cc>

00002314 <__modsi3>:
    2314:	20001716 	blt	r4,zero,2374 <__modsi3+0x60>
    2318:	000f883a 	mov	r7,zero
    231c:	2005883a 	mov	r2,r4
    2320:	28001216 	blt	r5,zero,236c <__modsi3+0x58>
    2324:	2900162e 	bgeu	r5,r4,2380 <__modsi3+0x6c>
    2328:	01800804 	movi	r6,32
    232c:	00c00044 	movi	r3,1
    2330:	00000106 	br	2338 <__modsi3+0x24>
    2334:	30000a26 	beq	r6,zero,2360 <__modsi3+0x4c>
    2338:	294b883a 	add	r5,r5,r5
    233c:	31bfffc4 	addi	r6,r6,-1
    2340:	18c7883a 	add	r3,r3,r3
    2344:	293ffb36 	bltu	r5,r4,2334 <__alt_mem_epcs_flash_controller_0+0xff801334>
    2348:	18000526 	beq	r3,zero,2360 <__modsi3+0x4c>
    234c:	1806d07a 	srli	r3,r3,1
    2350:	11400136 	bltu	r2,r5,2358 <__modsi3+0x44>
    2354:	1145c83a 	sub	r2,r2,r5
    2358:	280ad07a 	srli	r5,r5,1
    235c:	183ffb1e 	bne	r3,zero,234c <__alt_mem_epcs_flash_controller_0+0xff80134c>
    2360:	38000126 	beq	r7,zero,2368 <__modsi3+0x54>
    2364:	0085c83a 	sub	r2,zero,r2
    2368:	f800283a 	ret
    236c:	014bc83a 	sub	r5,zero,r5
    2370:	003fec06 	br	2324 <__alt_mem_epcs_flash_controller_0+0xff801324>
    2374:	0109c83a 	sub	r4,zero,r4
    2378:	01c00044 	movi	r7,1
    237c:	003fe706 	br	231c <__alt_mem_epcs_flash_controller_0+0xff80131c>
    2380:	00c00044 	movi	r3,1
    2384:	003ff106 	br	234c <__alt_mem_epcs_flash_controller_0+0xff80134c>

00002388 <__udivsi3>:
    2388:	200d883a 	mov	r6,r4
    238c:	2900152e 	bgeu	r5,r4,23e4 <__udivsi3+0x5c>
    2390:	28001416 	blt	r5,zero,23e4 <__udivsi3+0x5c>
    2394:	00800804 	movi	r2,32
    2398:	00c00044 	movi	r3,1
    239c:	00000206 	br	23a8 <__udivsi3+0x20>
    23a0:	10000e26 	beq	r2,zero,23dc <__udivsi3+0x54>
    23a4:	28000516 	blt	r5,zero,23bc <__udivsi3+0x34>
    23a8:	294b883a 	add	r5,r5,r5
    23ac:	10bfffc4 	addi	r2,r2,-1
    23b0:	18c7883a 	add	r3,r3,r3
    23b4:	293ffa36 	bltu	r5,r4,23a0 <__alt_mem_epcs_flash_controller_0+0xff8013a0>
    23b8:	18000826 	beq	r3,zero,23dc <__udivsi3+0x54>
    23bc:	0005883a 	mov	r2,zero
    23c0:	31400236 	bltu	r6,r5,23cc <__udivsi3+0x44>
    23c4:	314dc83a 	sub	r6,r6,r5
    23c8:	10c4b03a 	or	r2,r2,r3
    23cc:	1806d07a 	srli	r3,r3,1
    23d0:	280ad07a 	srli	r5,r5,1
    23d4:	183ffa1e 	bne	r3,zero,23c0 <__alt_mem_epcs_flash_controller_0+0xff8013c0>
    23d8:	f800283a 	ret
    23dc:	0005883a 	mov	r2,zero
    23e0:	f800283a 	ret
    23e4:	00c00044 	movi	r3,1
    23e8:	003ff406 	br	23bc <__alt_mem_epcs_flash_controller_0+0xff8013bc>

000023ec <__umodsi3>:
    23ec:	2005883a 	mov	r2,r4
    23f0:	2900122e 	bgeu	r5,r4,243c <__umodsi3+0x50>
    23f4:	28001116 	blt	r5,zero,243c <__umodsi3+0x50>
    23f8:	01800804 	movi	r6,32
    23fc:	00c00044 	movi	r3,1
    2400:	00000206 	br	240c <__umodsi3+0x20>
    2404:	30000c26 	beq	r6,zero,2438 <__umodsi3+0x4c>
    2408:	28000516 	blt	r5,zero,2420 <__umodsi3+0x34>
    240c:	294b883a 	add	r5,r5,r5
    2410:	31bfffc4 	addi	r6,r6,-1
    2414:	18c7883a 	add	r3,r3,r3
    2418:	293ffa36 	bltu	r5,r4,2404 <__alt_mem_epcs_flash_controller_0+0xff801404>
    241c:	18000626 	beq	r3,zero,2438 <__umodsi3+0x4c>
    2420:	1806d07a 	srli	r3,r3,1
    2424:	11400136 	bltu	r2,r5,242c <__umodsi3+0x40>
    2428:	1145c83a 	sub	r2,r2,r5
    242c:	280ad07a 	srli	r5,r5,1
    2430:	183ffb1e 	bne	r3,zero,2420 <__alt_mem_epcs_flash_controller_0+0xff801420>
    2434:	f800283a 	ret
    2438:	f800283a 	ret
    243c:	00c00044 	movi	r3,1
    2440:	003ff706 	br	2420 <__alt_mem_epcs_flash_controller_0+0xff801420>

00002444 <__mulsi3>:
    2444:	0005883a 	mov	r2,zero
    2448:	20000726 	beq	r4,zero,2468 <__mulsi3+0x24>
    244c:	20c0004c 	andi	r3,r4,1
    2450:	2008d07a 	srli	r4,r4,1
    2454:	18000126 	beq	r3,zero,245c <__mulsi3+0x18>
    2458:	1145883a 	add	r2,r2,r5
    245c:	294b883a 	add	r5,r5,r5
    2460:	203ffa1e 	bne	r4,zero,244c <__alt_mem_epcs_flash_controller_0+0xff80144c>
    2464:	f800283a 	ret
    2468:	f800283a 	ret

0000246c <_getc_r>:
    246c:	defffd04 	addi	sp,sp,-12
    2470:	dc000115 	stw	r16,4(sp)
    2474:	dfc00215 	stw	ra,8(sp)
    2478:	2021883a 	mov	r16,r4
    247c:	20000226 	beq	r4,zero,2488 <_getc_r+0x1c>
    2480:	20800e17 	ldw	r2,56(r4)
    2484:	10000c26 	beq	r2,zero,24b8 <_getc_r+0x4c>
    2488:	28800117 	ldw	r2,4(r5)
    248c:	10bfffc4 	addi	r2,r2,-1
    2490:	28800115 	stw	r2,4(r5)
    2494:	10000c16 	blt	r2,zero,24c8 <_getc_r+0x5c>
    2498:	28800017 	ldw	r2,0(r5)
    249c:	10c00044 	addi	r3,r2,1
    24a0:	28c00015 	stw	r3,0(r5)
    24a4:	10800003 	ldbu	r2,0(r2)
    24a8:	dfc00217 	ldw	ra,8(sp)
    24ac:	dc000117 	ldw	r16,4(sp)
    24b0:	dec00304 	addi	sp,sp,12
    24b4:	f800283a 	ret
    24b8:	d9400015 	stw	r5,0(sp)
    24bc:	00092600 	call	9260 <__sinit>
    24c0:	d9400017 	ldw	r5,0(sp)
    24c4:	003ff006 	br	2488 <__alt_mem_epcs_flash_controller_0+0xff801488>
    24c8:	8009883a 	mov	r4,r16
    24cc:	dfc00217 	ldw	ra,8(sp)
    24d0:	dc000117 	ldw	r16,4(sp)
    24d4:	dec00304 	addi	sp,sp,12
    24d8:	00030bc1 	jmpi	30bc <__srget_r>

000024dc <getc>:
    24dc:	008000b4 	movhi	r2,2
    24e0:	defffd04 	addi	sp,sp,-12
    24e4:	10801c04 	addi	r2,r2,112
    24e8:	dc400115 	stw	r17,4(sp)
    24ec:	14400017 	ldw	r17,0(r2)
    24f0:	dc000015 	stw	r16,0(sp)
    24f4:	dfc00215 	stw	ra,8(sp)
    24f8:	2021883a 	mov	r16,r4
    24fc:	88000226 	beq	r17,zero,2508 <getc+0x2c>
    2500:	88800e17 	ldw	r2,56(r17)
    2504:	10000d26 	beq	r2,zero,253c <getc+0x60>
    2508:	80800117 	ldw	r2,4(r16)
    250c:	10bfffc4 	addi	r2,r2,-1
    2510:	80800115 	stw	r2,4(r16)
    2514:	10000c16 	blt	r2,zero,2548 <getc+0x6c>
    2518:	80800017 	ldw	r2,0(r16)
    251c:	10c00044 	addi	r3,r2,1
    2520:	80c00015 	stw	r3,0(r16)
    2524:	10800003 	ldbu	r2,0(r2)
    2528:	dfc00217 	ldw	ra,8(sp)
    252c:	dc400117 	ldw	r17,4(sp)
    2530:	dc000017 	ldw	r16,0(sp)
    2534:	dec00304 	addi	sp,sp,12
    2538:	f800283a 	ret
    253c:	8809883a 	mov	r4,r17
    2540:	00092600 	call	9260 <__sinit>
    2544:	003ff006 	br	2508 <__alt_mem_epcs_flash_controller_0+0xff801508>
    2548:	800b883a 	mov	r5,r16
    254c:	8809883a 	mov	r4,r17
    2550:	dfc00217 	ldw	ra,8(sp)
    2554:	dc400117 	ldw	r17,4(sp)
    2558:	dc000017 	ldw	r16,0(sp)
    255c:	dec00304 	addi	sp,sp,12
    2560:	00030bc1 	jmpi	30bc <__srget_r>

00002564 <malloc>:
    2564:	008000b4 	movhi	r2,2
    2568:	10801c04 	addi	r2,r2,112
    256c:	200b883a 	mov	r5,r4
    2570:	11000017 	ldw	r4,0(r2)
    2574:	000258c1 	jmpi	258c <_malloc_r>

00002578 <free>:
    2578:	008000b4 	movhi	r2,2
    257c:	10801c04 	addi	r2,r2,112
    2580:	200b883a 	mov	r5,r4
    2584:	11000017 	ldw	r4,0(r2)
    2588:	00093d41 	jmpi	93d4 <_free_r>

0000258c <_malloc_r>:
    258c:	defff504 	addi	sp,sp,-44
    2590:	dc800315 	stw	r18,12(sp)
    2594:	dfc00a15 	stw	ra,40(sp)
    2598:	df000915 	stw	fp,36(sp)
    259c:	ddc00815 	stw	r23,32(sp)
    25a0:	dd800715 	stw	r22,28(sp)
    25a4:	dd400615 	stw	r21,24(sp)
    25a8:	dd000515 	stw	r20,20(sp)
    25ac:	dcc00415 	stw	r19,16(sp)
    25b0:	dc400215 	stw	r17,8(sp)
    25b4:	dc000115 	stw	r16,4(sp)
    25b8:	288002c4 	addi	r2,r5,11
    25bc:	00c00584 	movi	r3,22
    25c0:	2025883a 	mov	r18,r4
    25c4:	18807f2e 	bgeu	r3,r2,27c4 <_malloc_r+0x238>
    25c8:	047ffe04 	movi	r17,-8
    25cc:	1462703a 	and	r17,r2,r17
    25d0:	8800a316 	blt	r17,zero,2860 <_malloc_r+0x2d4>
    25d4:	8940a236 	bltu	r17,r5,2860 <_malloc_r+0x2d4>
    25d8:	0019ed00 	call	19ed0 <__malloc_lock>
    25dc:	00807dc4 	movi	r2,503
    25e0:	1441e92e 	bgeu	r2,r17,2d88 <_malloc_r+0x7fc>
    25e4:	8804d27a 	srli	r2,r17,9
    25e8:	1000a126 	beq	r2,zero,2870 <_malloc_r+0x2e4>
    25ec:	00c00104 	movi	r3,4
    25f0:	18811e36 	bltu	r3,r2,2a6c <_malloc_r+0x4e0>
    25f4:	8804d1ba 	srli	r2,r17,6
    25f8:	12000e44 	addi	r8,r2,57
    25fc:	11c00e04 	addi	r7,r2,56
    2600:	4209883a 	add	r4,r8,r8
    2604:	04c000b4 	movhi	r19,2
    2608:	2109883a 	add	r4,r4,r4
    260c:	9cfa4604 	addi	r19,r19,-5864
    2610:	2109883a 	add	r4,r4,r4
    2614:	9909883a 	add	r4,r19,r4
    2618:	24000117 	ldw	r16,4(r4)
    261c:	213ffe04 	addi	r4,r4,-8
    2620:	24009726 	beq	r4,r16,2880 <_malloc_r+0x2f4>
    2624:	80800117 	ldw	r2,4(r16)
    2628:	01bfff04 	movi	r6,-4
    262c:	014003c4 	movi	r5,15
    2630:	1184703a 	and	r2,r2,r6
    2634:	1447c83a 	sub	r3,r2,r17
    2638:	28c00716 	blt	r5,r3,2658 <_malloc_r+0xcc>
    263c:	1800920e 	bge	r3,zero,2888 <_malloc_r+0x2fc>
    2640:	84000317 	ldw	r16,12(r16)
    2644:	24008e26 	beq	r4,r16,2880 <_malloc_r+0x2f4>
    2648:	80800117 	ldw	r2,4(r16)
    264c:	1184703a 	and	r2,r2,r6
    2650:	1447c83a 	sub	r3,r2,r17
    2654:	28fff90e 	bge	r5,r3,263c <__alt_mem_epcs_flash_controller_0+0xff80163c>
    2658:	3809883a 	mov	r4,r7
    265c:	018000b4 	movhi	r6,2
    2660:	9c000417 	ldw	r16,16(r19)
    2664:	31ba4604 	addi	r6,r6,-5864
    2668:	32000204 	addi	r8,r6,8
    266c:	82013426 	beq	r16,r8,2b40 <_malloc_r+0x5b4>
    2670:	80c00117 	ldw	r3,4(r16)
    2674:	00bfff04 	movi	r2,-4
    2678:	188e703a 	and	r7,r3,r2
    267c:	3c45c83a 	sub	r2,r7,r17
    2680:	00c003c4 	movi	r3,15
    2684:	18811f16 	blt	r3,r2,2b04 <_malloc_r+0x578>
    2688:	32000515 	stw	r8,20(r6)
    268c:	32000415 	stw	r8,16(r6)
    2690:	10007f0e 	bge	r2,zero,2890 <_malloc_r+0x304>
    2694:	00807fc4 	movi	r2,511
    2698:	11c0fd36 	bltu	r2,r7,2a90 <_malloc_r+0x504>
    269c:	3806d0fa 	srli	r3,r7,3
    26a0:	01c00044 	movi	r7,1
    26a4:	30800117 	ldw	r2,4(r6)
    26a8:	19400044 	addi	r5,r3,1
    26ac:	294b883a 	add	r5,r5,r5
    26b0:	1807d0ba 	srai	r3,r3,2
    26b4:	294b883a 	add	r5,r5,r5
    26b8:	294b883a 	add	r5,r5,r5
    26bc:	298b883a 	add	r5,r5,r6
    26c0:	38c6983a 	sll	r3,r7,r3
    26c4:	29c00017 	ldw	r7,0(r5)
    26c8:	2a7ffe04 	addi	r9,r5,-8
    26cc:	1886b03a 	or	r3,r3,r2
    26d0:	82400315 	stw	r9,12(r16)
    26d4:	81c00215 	stw	r7,8(r16)
    26d8:	30c00115 	stw	r3,4(r6)
    26dc:	2c000015 	stw	r16,0(r5)
    26e0:	3c000315 	stw	r16,12(r7)
    26e4:	2005d0ba 	srai	r2,r4,2
    26e8:	01400044 	movi	r5,1
    26ec:	288a983a 	sll	r5,r5,r2
    26f0:	19406f36 	bltu	r3,r5,28b0 <_malloc_r+0x324>
    26f4:	28c4703a 	and	r2,r5,r3
    26f8:	10000a1e 	bne	r2,zero,2724 <_malloc_r+0x198>
    26fc:	00bfff04 	movi	r2,-4
    2700:	294b883a 	add	r5,r5,r5
    2704:	2088703a 	and	r4,r4,r2
    2708:	28c4703a 	and	r2,r5,r3
    270c:	21000104 	addi	r4,r4,4
    2710:	1000041e 	bne	r2,zero,2724 <_malloc_r+0x198>
    2714:	294b883a 	add	r5,r5,r5
    2718:	28c4703a 	and	r2,r5,r3
    271c:	21000104 	addi	r4,r4,4
    2720:	103ffc26 	beq	r2,zero,2714 <__alt_mem_epcs_flash_controller_0+0xff801714>
    2724:	02bfff04 	movi	r10,-4
    2728:	024003c4 	movi	r9,15
    272c:	21800044 	addi	r6,r4,1
    2730:	318d883a 	add	r6,r6,r6
    2734:	318d883a 	add	r6,r6,r6
    2738:	318d883a 	add	r6,r6,r6
    273c:	998d883a 	add	r6,r19,r6
    2740:	333ffe04 	addi	r12,r6,-8
    2744:	2017883a 	mov	r11,r4
    2748:	31800104 	addi	r6,r6,4
    274c:	34000017 	ldw	r16,0(r6)
    2750:	31fffd04 	addi	r7,r6,-12
    2754:	81c0041e 	bne	r16,r7,2768 <_malloc_r+0x1dc>
    2758:	0000fb06 	br	2b48 <_malloc_r+0x5bc>
    275c:	1801030e 	bge	r3,zero,2b6c <_malloc_r+0x5e0>
    2760:	84000317 	ldw	r16,12(r16)
    2764:	81c0f826 	beq	r16,r7,2b48 <_malloc_r+0x5bc>
    2768:	80800117 	ldw	r2,4(r16)
    276c:	1284703a 	and	r2,r2,r10
    2770:	1447c83a 	sub	r3,r2,r17
    2774:	48fff90e 	bge	r9,r3,275c <__alt_mem_epcs_flash_controller_0+0xff80175c>
    2778:	80800317 	ldw	r2,12(r16)
    277c:	81000217 	ldw	r4,8(r16)
    2780:	89400054 	ori	r5,r17,1
    2784:	81400115 	stw	r5,4(r16)
    2788:	20800315 	stw	r2,12(r4)
    278c:	11000215 	stw	r4,8(r2)
    2790:	8463883a 	add	r17,r16,r17
    2794:	9c400515 	stw	r17,20(r19)
    2798:	9c400415 	stw	r17,16(r19)
    279c:	18800054 	ori	r2,r3,1
    27a0:	88800115 	stw	r2,4(r17)
    27a4:	8a000315 	stw	r8,12(r17)
    27a8:	8a000215 	stw	r8,8(r17)
    27ac:	88e3883a 	add	r17,r17,r3
    27b0:	88c00015 	stw	r3,0(r17)
    27b4:	9009883a 	mov	r4,r18
    27b8:	0019ef40 	call	19ef4 <__malloc_unlock>
    27bc:	80800204 	addi	r2,r16,8
    27c0:	00001b06 	br	2830 <_malloc_r+0x2a4>
    27c4:	04400404 	movi	r17,16
    27c8:	89402536 	bltu	r17,r5,2860 <_malloc_r+0x2d4>
    27cc:	0019ed00 	call	19ed0 <__malloc_lock>
    27d0:	00800184 	movi	r2,6
    27d4:	01000084 	movi	r4,2
    27d8:	04c000b4 	movhi	r19,2
    27dc:	1085883a 	add	r2,r2,r2
    27e0:	9cfa4604 	addi	r19,r19,-5864
    27e4:	1085883a 	add	r2,r2,r2
    27e8:	9885883a 	add	r2,r19,r2
    27ec:	14000117 	ldw	r16,4(r2)
    27f0:	10fffe04 	addi	r3,r2,-8
    27f4:	80c0d926 	beq	r16,r3,2b5c <_malloc_r+0x5d0>
    27f8:	80c00117 	ldw	r3,4(r16)
    27fc:	81000317 	ldw	r4,12(r16)
    2800:	00bfff04 	movi	r2,-4
    2804:	1884703a 	and	r2,r3,r2
    2808:	81400217 	ldw	r5,8(r16)
    280c:	8085883a 	add	r2,r16,r2
    2810:	10c00117 	ldw	r3,4(r2)
    2814:	29000315 	stw	r4,12(r5)
    2818:	21400215 	stw	r5,8(r4)
    281c:	18c00054 	ori	r3,r3,1
    2820:	10c00115 	stw	r3,4(r2)
    2824:	9009883a 	mov	r4,r18
    2828:	0019ef40 	call	19ef4 <__malloc_unlock>
    282c:	80800204 	addi	r2,r16,8
    2830:	dfc00a17 	ldw	ra,40(sp)
    2834:	df000917 	ldw	fp,36(sp)
    2838:	ddc00817 	ldw	r23,32(sp)
    283c:	dd800717 	ldw	r22,28(sp)
    2840:	dd400617 	ldw	r21,24(sp)
    2844:	dd000517 	ldw	r20,20(sp)
    2848:	dcc00417 	ldw	r19,16(sp)
    284c:	dc800317 	ldw	r18,12(sp)
    2850:	dc400217 	ldw	r17,8(sp)
    2854:	dc000117 	ldw	r16,4(sp)
    2858:	dec00b04 	addi	sp,sp,44
    285c:	f800283a 	ret
    2860:	00800304 	movi	r2,12
    2864:	90800015 	stw	r2,0(r18)
    2868:	0005883a 	mov	r2,zero
    286c:	003ff006 	br	2830 <__alt_mem_epcs_flash_controller_0+0xff801830>
    2870:	01002004 	movi	r4,128
    2874:	02001004 	movi	r8,64
    2878:	01c00fc4 	movi	r7,63
    287c:	003f6106 	br	2604 <__alt_mem_epcs_flash_controller_0+0xff801604>
    2880:	4009883a 	mov	r4,r8
    2884:	003f7506 	br	265c <__alt_mem_epcs_flash_controller_0+0xff80165c>
    2888:	81000317 	ldw	r4,12(r16)
    288c:	003fde06 	br	2808 <__alt_mem_epcs_flash_controller_0+0xff801808>
    2890:	81c5883a 	add	r2,r16,r7
    2894:	11400117 	ldw	r5,4(r2)
    2898:	9009883a 	mov	r4,r18
    289c:	29400054 	ori	r5,r5,1
    28a0:	11400115 	stw	r5,4(r2)
    28a4:	0019ef40 	call	19ef4 <__malloc_unlock>
    28a8:	80800204 	addi	r2,r16,8
    28ac:	003fe006 	br	2830 <__alt_mem_epcs_flash_controller_0+0xff801830>
    28b0:	9c000217 	ldw	r16,8(r19)
    28b4:	00bfff04 	movi	r2,-4
    28b8:	85800117 	ldw	r22,4(r16)
    28bc:	b0ac703a 	and	r22,r22,r2
    28c0:	b4400336 	bltu	r22,r17,28d0 <_malloc_r+0x344>
    28c4:	b445c83a 	sub	r2,r22,r17
    28c8:	00c003c4 	movi	r3,15
    28cc:	18805d16 	blt	r3,r2,2a44 <_malloc_r+0x4b8>
    28d0:	05c000b4 	movhi	r23,2
    28d4:	008000b4 	movhi	r2,2
    28d8:	10872504 	addi	r2,r2,7316
    28dc:	bdc01d04 	addi	r23,r23,116
    28e0:	15400017 	ldw	r21,0(r2)
    28e4:	b8c00017 	ldw	r3,0(r23)
    28e8:	00bfffc4 	movi	r2,-1
    28ec:	858d883a 	add	r6,r16,r22
    28f0:	8d6b883a 	add	r21,r17,r21
    28f4:	1880ea26 	beq	r3,r2,2ca0 <_malloc_r+0x714>
    28f8:	ad4403c4 	addi	r21,r21,4111
    28fc:	00bc0004 	movi	r2,-4096
    2900:	a8aa703a 	and	r21,r21,r2
    2904:	a80b883a 	mov	r5,r21
    2908:	9009883a 	mov	r4,r18
    290c:	d9800015 	stw	r6,0(sp)
    2910:	00031440 	call	3144 <_sbrk_r>
    2914:	1029883a 	mov	r20,r2
    2918:	00bfffc4 	movi	r2,-1
    291c:	d9800017 	ldw	r6,0(sp)
    2920:	a080e826 	beq	r20,r2,2cc4 <_malloc_r+0x738>
    2924:	a180a636 	bltu	r20,r6,2bc0 <_malloc_r+0x634>
    2928:	070000b4 	movhi	fp,2
    292c:	e7073104 	addi	fp,fp,7364
    2930:	e0800017 	ldw	r2,0(fp)
    2934:	a887883a 	add	r3,r21,r2
    2938:	e0c00015 	stw	r3,0(fp)
    293c:	3500e626 	beq	r6,r20,2cd8 <_malloc_r+0x74c>
    2940:	b9000017 	ldw	r4,0(r23)
    2944:	00bfffc4 	movi	r2,-1
    2948:	2080ee26 	beq	r4,r2,2d04 <_malloc_r+0x778>
    294c:	a185c83a 	sub	r2,r20,r6
    2950:	10c5883a 	add	r2,r2,r3
    2954:	e0800015 	stw	r2,0(fp)
    2958:	a0c001cc 	andi	r3,r20,7
    295c:	1800bc26 	beq	r3,zero,2c50 <_malloc_r+0x6c4>
    2960:	a0e9c83a 	sub	r20,r20,r3
    2964:	00840204 	movi	r2,4104
    2968:	a5000204 	addi	r20,r20,8
    296c:	10c7c83a 	sub	r3,r2,r3
    2970:	a545883a 	add	r2,r20,r21
    2974:	1083ffcc 	andi	r2,r2,4095
    2978:	18abc83a 	sub	r21,r3,r2
    297c:	a80b883a 	mov	r5,r21
    2980:	9009883a 	mov	r4,r18
    2984:	00031440 	call	3144 <_sbrk_r>
    2988:	00ffffc4 	movi	r3,-1
    298c:	10c0e126 	beq	r2,r3,2d14 <_malloc_r+0x788>
    2990:	1505c83a 	sub	r2,r2,r20
    2994:	1545883a 	add	r2,r2,r21
    2998:	10800054 	ori	r2,r2,1
    299c:	e0c00017 	ldw	r3,0(fp)
    29a0:	9d000215 	stw	r20,8(r19)
    29a4:	a0800115 	stw	r2,4(r20)
    29a8:	a8c7883a 	add	r3,r21,r3
    29ac:	e0c00015 	stw	r3,0(fp)
    29b0:	84c00e26 	beq	r16,r19,29ec <_malloc_r+0x460>
    29b4:	018003c4 	movi	r6,15
    29b8:	3580a72e 	bgeu	r6,r22,2c58 <_malloc_r+0x6cc>
    29bc:	81400117 	ldw	r5,4(r16)
    29c0:	013ffe04 	movi	r4,-8
    29c4:	b0bffd04 	addi	r2,r22,-12
    29c8:	1104703a 	and	r2,r2,r4
    29cc:	2900004c 	andi	r4,r5,1
    29d0:	2088b03a 	or	r4,r4,r2
    29d4:	81000115 	stw	r4,4(r16)
    29d8:	01400144 	movi	r5,5
    29dc:	8089883a 	add	r4,r16,r2
    29e0:	21400115 	stw	r5,4(r4)
    29e4:	21400215 	stw	r5,8(r4)
    29e8:	3080cd36 	bltu	r6,r2,2d20 <_malloc_r+0x794>
    29ec:	008000b4 	movhi	r2,2
    29f0:	10872404 	addi	r2,r2,7312
    29f4:	11000017 	ldw	r4,0(r2)
    29f8:	20c0012e 	bgeu	r4,r3,2a00 <_malloc_r+0x474>
    29fc:	10c00015 	stw	r3,0(r2)
    2a00:	008000b4 	movhi	r2,2
    2a04:	10872304 	addi	r2,r2,7308
    2a08:	11000017 	ldw	r4,0(r2)
    2a0c:	9c000217 	ldw	r16,8(r19)
    2a10:	20c0012e 	bgeu	r4,r3,2a18 <_malloc_r+0x48c>
    2a14:	10c00015 	stw	r3,0(r2)
    2a18:	80c00117 	ldw	r3,4(r16)
    2a1c:	00bfff04 	movi	r2,-4
    2a20:	1886703a 	and	r3,r3,r2
    2a24:	1c45c83a 	sub	r2,r3,r17
    2a28:	1c400236 	bltu	r3,r17,2a34 <_malloc_r+0x4a8>
    2a2c:	00c003c4 	movi	r3,15
    2a30:	18800416 	blt	r3,r2,2a44 <_malloc_r+0x4b8>
    2a34:	9009883a 	mov	r4,r18
    2a38:	0019ef40 	call	19ef4 <__malloc_unlock>
    2a3c:	0005883a 	mov	r2,zero
    2a40:	003f7b06 	br	2830 <__alt_mem_epcs_flash_controller_0+0xff801830>
    2a44:	88c00054 	ori	r3,r17,1
    2a48:	80c00115 	stw	r3,4(r16)
    2a4c:	8463883a 	add	r17,r16,r17
    2a50:	10800054 	ori	r2,r2,1
    2a54:	9c400215 	stw	r17,8(r19)
    2a58:	88800115 	stw	r2,4(r17)
    2a5c:	9009883a 	mov	r4,r18
    2a60:	0019ef40 	call	19ef4 <__malloc_unlock>
    2a64:	80800204 	addi	r2,r16,8
    2a68:	003f7106 	br	2830 <__alt_mem_epcs_flash_controller_0+0xff801830>
    2a6c:	00c00504 	movi	r3,20
    2a70:	18804a2e 	bgeu	r3,r2,2b9c <_malloc_r+0x610>
    2a74:	00c01504 	movi	r3,84
    2a78:	18806e36 	bltu	r3,r2,2c34 <_malloc_r+0x6a8>
    2a7c:	8804d33a 	srli	r2,r17,12
    2a80:	12001bc4 	addi	r8,r2,111
    2a84:	11c01b84 	addi	r7,r2,110
    2a88:	4209883a 	add	r4,r8,r8
    2a8c:	003edd06 	br	2604 <__alt_mem_epcs_flash_controller_0+0xff801604>
    2a90:	3804d27a 	srli	r2,r7,9
    2a94:	00c00104 	movi	r3,4
    2a98:	1880442e 	bgeu	r3,r2,2bac <_malloc_r+0x620>
    2a9c:	00c00504 	movi	r3,20
    2aa0:	18808136 	bltu	r3,r2,2ca8 <_malloc_r+0x71c>
    2aa4:	11401704 	addi	r5,r2,92
    2aa8:	10c016c4 	addi	r3,r2,91
    2aac:	294b883a 	add	r5,r5,r5
    2ab0:	294b883a 	add	r5,r5,r5
    2ab4:	294b883a 	add	r5,r5,r5
    2ab8:	994b883a 	add	r5,r19,r5
    2abc:	28800017 	ldw	r2,0(r5)
    2ac0:	018000b4 	movhi	r6,2
    2ac4:	297ffe04 	addi	r5,r5,-8
    2ac8:	31ba4604 	addi	r6,r6,-5864
    2acc:	28806526 	beq	r5,r2,2c64 <_malloc_r+0x6d8>
    2ad0:	01bfff04 	movi	r6,-4
    2ad4:	10c00117 	ldw	r3,4(r2)
    2ad8:	1986703a 	and	r3,r3,r6
    2adc:	38c0022e 	bgeu	r7,r3,2ae8 <_malloc_r+0x55c>
    2ae0:	10800217 	ldw	r2,8(r2)
    2ae4:	28bffb1e 	bne	r5,r2,2ad4 <__alt_mem_epcs_flash_controller_0+0xff801ad4>
    2ae8:	11400317 	ldw	r5,12(r2)
    2aec:	98c00117 	ldw	r3,4(r19)
    2af0:	81400315 	stw	r5,12(r16)
    2af4:	80800215 	stw	r2,8(r16)
    2af8:	2c000215 	stw	r16,8(r5)
    2afc:	14000315 	stw	r16,12(r2)
    2b00:	003ef806 	br	26e4 <__alt_mem_epcs_flash_controller_0+0xff8016e4>
    2b04:	88c00054 	ori	r3,r17,1
    2b08:	80c00115 	stw	r3,4(r16)
    2b0c:	8463883a 	add	r17,r16,r17
    2b10:	34400515 	stw	r17,20(r6)
    2b14:	34400415 	stw	r17,16(r6)
    2b18:	10c00054 	ori	r3,r2,1
    2b1c:	8a000315 	stw	r8,12(r17)
    2b20:	8a000215 	stw	r8,8(r17)
    2b24:	88c00115 	stw	r3,4(r17)
    2b28:	88a3883a 	add	r17,r17,r2
    2b2c:	88800015 	stw	r2,0(r17)
    2b30:	9009883a 	mov	r4,r18
    2b34:	0019ef40 	call	19ef4 <__malloc_unlock>
    2b38:	80800204 	addi	r2,r16,8
    2b3c:	003f3c06 	br	2830 <__alt_mem_epcs_flash_controller_0+0xff801830>
    2b40:	30c00117 	ldw	r3,4(r6)
    2b44:	003ee706 	br	26e4 <__alt_mem_epcs_flash_controller_0+0xff8016e4>
    2b48:	5ac00044 	addi	r11,r11,1
    2b4c:	588000cc 	andi	r2,r11,3
    2b50:	31800204 	addi	r6,r6,8
    2b54:	103efd1e 	bne	r2,zero,274c <__alt_mem_epcs_flash_controller_0+0xff80174c>
    2b58:	00002406 	br	2bec <_malloc_r+0x660>
    2b5c:	14000317 	ldw	r16,12(r2)
    2b60:	143f251e 	bne	r2,r16,27f8 <__alt_mem_epcs_flash_controller_0+0xff8017f8>
    2b64:	21000084 	addi	r4,r4,2
    2b68:	003ebc06 	br	265c <__alt_mem_epcs_flash_controller_0+0xff80165c>
    2b6c:	8085883a 	add	r2,r16,r2
    2b70:	10c00117 	ldw	r3,4(r2)
    2b74:	81000317 	ldw	r4,12(r16)
    2b78:	81400217 	ldw	r5,8(r16)
    2b7c:	18c00054 	ori	r3,r3,1
    2b80:	10c00115 	stw	r3,4(r2)
    2b84:	29000315 	stw	r4,12(r5)
    2b88:	21400215 	stw	r5,8(r4)
    2b8c:	9009883a 	mov	r4,r18
    2b90:	0019ef40 	call	19ef4 <__malloc_unlock>
    2b94:	80800204 	addi	r2,r16,8
    2b98:	003f2506 	br	2830 <__alt_mem_epcs_flash_controller_0+0xff801830>
    2b9c:	12001704 	addi	r8,r2,92
    2ba0:	11c016c4 	addi	r7,r2,91
    2ba4:	4209883a 	add	r4,r8,r8
    2ba8:	003e9606 	br	2604 <__alt_mem_epcs_flash_controller_0+0xff801604>
    2bac:	3804d1ba 	srli	r2,r7,6
    2bb0:	11400e44 	addi	r5,r2,57
    2bb4:	10c00e04 	addi	r3,r2,56
    2bb8:	294b883a 	add	r5,r5,r5
    2bbc:	003fbc06 	br	2ab0 <__alt_mem_epcs_flash_controller_0+0xff801ab0>
    2bc0:	84ff5926 	beq	r16,r19,2928 <__alt_mem_epcs_flash_controller_0+0xff801928>
    2bc4:	008000b4 	movhi	r2,2
    2bc8:	10ba4604 	addi	r2,r2,-5864
    2bcc:	14000217 	ldw	r16,8(r2)
    2bd0:	00bfff04 	movi	r2,-4
    2bd4:	80c00117 	ldw	r3,4(r16)
    2bd8:	1886703a 	and	r3,r3,r2
    2bdc:	003f9106 	br	2a24 <__alt_mem_epcs_flash_controller_0+0xff801a24>
    2be0:	60800217 	ldw	r2,8(r12)
    2be4:	213fffc4 	addi	r4,r4,-1
    2be8:	1300651e 	bne	r2,r12,2d80 <_malloc_r+0x7f4>
    2bec:	208000cc 	andi	r2,r4,3
    2bf0:	633ffe04 	addi	r12,r12,-8
    2bf4:	103ffa1e 	bne	r2,zero,2be0 <__alt_mem_epcs_flash_controller_0+0xff801be0>
    2bf8:	98800117 	ldw	r2,4(r19)
    2bfc:	0146303a 	nor	r3,zero,r5
    2c00:	1884703a 	and	r2,r3,r2
    2c04:	98800115 	stw	r2,4(r19)
    2c08:	294b883a 	add	r5,r5,r5
    2c0c:	117f2836 	bltu	r2,r5,28b0 <__alt_mem_epcs_flash_controller_0+0xff8018b0>
    2c10:	283f2726 	beq	r5,zero,28b0 <__alt_mem_epcs_flash_controller_0+0xff8018b0>
    2c14:	2886703a 	and	r3,r5,r2
    2c18:	5809883a 	mov	r4,r11
    2c1c:	183ec31e 	bne	r3,zero,272c <__alt_mem_epcs_flash_controller_0+0xff80172c>
    2c20:	294b883a 	add	r5,r5,r5
    2c24:	2886703a 	and	r3,r5,r2
    2c28:	21000104 	addi	r4,r4,4
    2c2c:	183ffc26 	beq	r3,zero,2c20 <__alt_mem_epcs_flash_controller_0+0xff801c20>
    2c30:	003ebe06 	br	272c <__alt_mem_epcs_flash_controller_0+0xff80172c>
    2c34:	00c05504 	movi	r3,340
    2c38:	18801236 	bltu	r3,r2,2c84 <_malloc_r+0x6f8>
    2c3c:	8804d3fa 	srli	r2,r17,15
    2c40:	12001e04 	addi	r8,r2,120
    2c44:	11c01dc4 	addi	r7,r2,119
    2c48:	4209883a 	add	r4,r8,r8
    2c4c:	003e6d06 	br	2604 <__alt_mem_epcs_flash_controller_0+0xff801604>
    2c50:	00c40004 	movi	r3,4096
    2c54:	003f4606 	br	2970 <__alt_mem_epcs_flash_controller_0+0xff801970>
    2c58:	00800044 	movi	r2,1
    2c5c:	a0800115 	stw	r2,4(r20)
    2c60:	003f7406 	br	2a34 <__alt_mem_epcs_flash_controller_0+0xff801a34>
    2c64:	1805d0ba 	srai	r2,r3,2
    2c68:	01c00044 	movi	r7,1
    2c6c:	30c00117 	ldw	r3,4(r6)
    2c70:	388e983a 	sll	r7,r7,r2
    2c74:	2805883a 	mov	r2,r5
    2c78:	38c6b03a 	or	r3,r7,r3
    2c7c:	30c00115 	stw	r3,4(r6)
    2c80:	003f9b06 	br	2af0 <__alt_mem_epcs_flash_controller_0+0xff801af0>
    2c84:	00c15504 	movi	r3,1364
    2c88:	18801a36 	bltu	r3,r2,2cf4 <_malloc_r+0x768>
    2c8c:	8804d4ba 	srli	r2,r17,18
    2c90:	12001f44 	addi	r8,r2,125
    2c94:	11c01f04 	addi	r7,r2,124
    2c98:	4209883a 	add	r4,r8,r8
    2c9c:	003e5906 	br	2604 <__alt_mem_epcs_flash_controller_0+0xff801604>
    2ca0:	ad400404 	addi	r21,r21,16
    2ca4:	003f1706 	br	2904 <__alt_mem_epcs_flash_controller_0+0xff801904>
    2ca8:	00c01504 	movi	r3,84
    2cac:	18802336 	bltu	r3,r2,2d3c <_malloc_r+0x7b0>
    2cb0:	3804d33a 	srli	r2,r7,12
    2cb4:	11401bc4 	addi	r5,r2,111
    2cb8:	10c01b84 	addi	r3,r2,110
    2cbc:	294b883a 	add	r5,r5,r5
    2cc0:	003f7b06 	br	2ab0 <__alt_mem_epcs_flash_controller_0+0xff801ab0>
    2cc4:	9c000217 	ldw	r16,8(r19)
    2cc8:	00bfff04 	movi	r2,-4
    2ccc:	80c00117 	ldw	r3,4(r16)
    2cd0:	1886703a 	and	r3,r3,r2
    2cd4:	003f5306 	br	2a24 <__alt_mem_epcs_flash_controller_0+0xff801a24>
    2cd8:	3083ffcc 	andi	r2,r6,4095
    2cdc:	103f181e 	bne	r2,zero,2940 <__alt_mem_epcs_flash_controller_0+0xff801940>
    2ce0:	99000217 	ldw	r4,8(r19)
    2ce4:	b545883a 	add	r2,r22,r21
    2ce8:	10800054 	ori	r2,r2,1
    2cec:	20800115 	stw	r2,4(r4)
    2cf0:	003f3e06 	br	29ec <__alt_mem_epcs_flash_controller_0+0xff8019ec>
    2cf4:	01003f84 	movi	r4,254
    2cf8:	02001fc4 	movi	r8,127
    2cfc:	01c01f84 	movi	r7,126
    2d00:	003e4006 	br	2604 <__alt_mem_epcs_flash_controller_0+0xff801604>
    2d04:	008000b4 	movhi	r2,2
    2d08:	10801d04 	addi	r2,r2,116
    2d0c:	15000015 	stw	r20,0(r2)
    2d10:	003f1106 	br	2958 <__alt_mem_epcs_flash_controller_0+0xff801958>
    2d14:	00800044 	movi	r2,1
    2d18:	002b883a 	mov	r21,zero
    2d1c:	003f1f06 	br	299c <__alt_mem_epcs_flash_controller_0+0xff80199c>
    2d20:	81400204 	addi	r5,r16,8
    2d24:	9009883a 	mov	r4,r18
    2d28:	00093d40 	call	93d4 <_free_r>
    2d2c:	008000b4 	movhi	r2,2
    2d30:	10873104 	addi	r2,r2,7364
    2d34:	10c00017 	ldw	r3,0(r2)
    2d38:	003f2c06 	br	29ec <__alt_mem_epcs_flash_controller_0+0xff8019ec>
    2d3c:	00c05504 	movi	r3,340
    2d40:	18800536 	bltu	r3,r2,2d58 <_malloc_r+0x7cc>
    2d44:	3804d3fa 	srli	r2,r7,15
    2d48:	11401e04 	addi	r5,r2,120
    2d4c:	10c01dc4 	addi	r3,r2,119
    2d50:	294b883a 	add	r5,r5,r5
    2d54:	003f5606 	br	2ab0 <__alt_mem_epcs_flash_controller_0+0xff801ab0>
    2d58:	00c15504 	movi	r3,1364
    2d5c:	18800536 	bltu	r3,r2,2d74 <_malloc_r+0x7e8>
    2d60:	3804d4ba 	srli	r2,r7,18
    2d64:	11401f44 	addi	r5,r2,125
    2d68:	10c01f04 	addi	r3,r2,124
    2d6c:	294b883a 	add	r5,r5,r5
    2d70:	003f4f06 	br	2ab0 <__alt_mem_epcs_flash_controller_0+0xff801ab0>
    2d74:	01403f84 	movi	r5,254
    2d78:	00c01f84 	movi	r3,126
    2d7c:	003f4c06 	br	2ab0 <__alt_mem_epcs_flash_controller_0+0xff801ab0>
    2d80:	98800117 	ldw	r2,4(r19)
    2d84:	003fa006 	br	2c08 <__alt_mem_epcs_flash_controller_0+0xff801c08>
    2d88:	8808d0fa 	srli	r4,r17,3
    2d8c:	20800044 	addi	r2,r4,1
    2d90:	1085883a 	add	r2,r2,r2
    2d94:	003e9006 	br	27d8 <__alt_mem_epcs_flash_controller_0+0xff8017d8>

00002d98 <memcmp>:
    2d98:	01c000c4 	movi	r7,3
    2d9c:	3980192e 	bgeu	r7,r6,2e04 <memcmp+0x6c>
    2da0:	2144b03a 	or	r2,r4,r5
    2da4:	11c4703a 	and	r2,r2,r7
    2da8:	10000f26 	beq	r2,zero,2de8 <memcmp+0x50>
    2dac:	20800003 	ldbu	r2,0(r4)
    2db0:	28c00003 	ldbu	r3,0(r5)
    2db4:	10c0151e 	bne	r2,r3,2e0c <memcmp+0x74>
    2db8:	31bfff84 	addi	r6,r6,-2
    2dbc:	01ffffc4 	movi	r7,-1
    2dc0:	00000406 	br	2dd4 <memcmp+0x3c>
    2dc4:	20800003 	ldbu	r2,0(r4)
    2dc8:	28c00003 	ldbu	r3,0(r5)
    2dcc:	31bfffc4 	addi	r6,r6,-1
    2dd0:	10c00e1e 	bne	r2,r3,2e0c <memcmp+0x74>
    2dd4:	21000044 	addi	r4,r4,1
    2dd8:	29400044 	addi	r5,r5,1
    2ddc:	31fff91e 	bne	r6,r7,2dc4 <__alt_mem_epcs_flash_controller_0+0xff801dc4>
    2de0:	0005883a 	mov	r2,zero
    2de4:	f800283a 	ret
    2de8:	20c00017 	ldw	r3,0(r4)
    2dec:	28800017 	ldw	r2,0(r5)
    2df0:	18bfee1e 	bne	r3,r2,2dac <__alt_mem_epcs_flash_controller_0+0xff801dac>
    2df4:	31bfff04 	addi	r6,r6,-4
    2df8:	21000104 	addi	r4,r4,4
    2dfc:	29400104 	addi	r5,r5,4
    2e00:	39bff936 	bltu	r7,r6,2de8 <__alt_mem_epcs_flash_controller_0+0xff801de8>
    2e04:	303fe91e 	bne	r6,zero,2dac <__alt_mem_epcs_flash_controller_0+0xff801dac>
    2e08:	003ff506 	br	2de0 <__alt_mem_epcs_flash_controller_0+0xff801de0>
    2e0c:	10c5c83a 	sub	r2,r2,r3
    2e10:	f800283a 	ret

00002e14 <memcpy>:
    2e14:	defffd04 	addi	sp,sp,-12
    2e18:	dfc00215 	stw	ra,8(sp)
    2e1c:	dc400115 	stw	r17,4(sp)
    2e20:	dc000015 	stw	r16,0(sp)
    2e24:	00c003c4 	movi	r3,15
    2e28:	2005883a 	mov	r2,r4
    2e2c:	1980452e 	bgeu	r3,r6,2f44 <memcpy+0x130>
    2e30:	2906b03a 	or	r3,r5,r4
    2e34:	18c000cc 	andi	r3,r3,3
    2e38:	1800441e 	bne	r3,zero,2f4c <memcpy+0x138>
    2e3c:	347ffc04 	addi	r17,r6,-16
    2e40:	8822d13a 	srli	r17,r17,4
    2e44:	28c00104 	addi	r3,r5,4
    2e48:	23400104 	addi	r13,r4,4
    2e4c:	8820913a 	slli	r16,r17,4
    2e50:	2b000204 	addi	r12,r5,8
    2e54:	22c00204 	addi	r11,r4,8
    2e58:	84000504 	addi	r16,r16,20
    2e5c:	2a800304 	addi	r10,r5,12
    2e60:	22400304 	addi	r9,r4,12
    2e64:	2c21883a 	add	r16,r5,r16
    2e68:	2811883a 	mov	r8,r5
    2e6c:	200f883a 	mov	r7,r4
    2e70:	41000017 	ldw	r4,0(r8)
    2e74:	1fc00017 	ldw	ra,0(r3)
    2e78:	63c00017 	ldw	r15,0(r12)
    2e7c:	39000015 	stw	r4,0(r7)
    2e80:	53800017 	ldw	r14,0(r10)
    2e84:	6fc00015 	stw	ra,0(r13)
    2e88:	5bc00015 	stw	r15,0(r11)
    2e8c:	4b800015 	stw	r14,0(r9)
    2e90:	18c00404 	addi	r3,r3,16
    2e94:	39c00404 	addi	r7,r7,16
    2e98:	42000404 	addi	r8,r8,16
    2e9c:	6b400404 	addi	r13,r13,16
    2ea0:	63000404 	addi	r12,r12,16
    2ea4:	5ac00404 	addi	r11,r11,16
    2ea8:	52800404 	addi	r10,r10,16
    2eac:	4a400404 	addi	r9,r9,16
    2eb0:	1c3fef1e 	bne	r3,r16,2e70 <__alt_mem_epcs_flash_controller_0+0xff801e70>
    2eb4:	89c00044 	addi	r7,r17,1
    2eb8:	380e913a 	slli	r7,r7,4
    2ebc:	310003cc 	andi	r4,r6,15
    2ec0:	02c000c4 	movi	r11,3
    2ec4:	11c7883a 	add	r3,r2,r7
    2ec8:	29cb883a 	add	r5,r5,r7
    2ecc:	5900212e 	bgeu	r11,r4,2f54 <memcpy+0x140>
    2ed0:	1813883a 	mov	r9,r3
    2ed4:	2811883a 	mov	r8,r5
    2ed8:	200f883a 	mov	r7,r4
    2edc:	42800017 	ldw	r10,0(r8)
    2ee0:	4a400104 	addi	r9,r9,4
    2ee4:	39ffff04 	addi	r7,r7,-4
    2ee8:	4abfff15 	stw	r10,-4(r9)
    2eec:	42000104 	addi	r8,r8,4
    2ef0:	59fffa36 	bltu	r11,r7,2edc <__alt_mem_epcs_flash_controller_0+0xff801edc>
    2ef4:	213fff04 	addi	r4,r4,-4
    2ef8:	2008d0ba 	srli	r4,r4,2
    2efc:	318000cc 	andi	r6,r6,3
    2f00:	21000044 	addi	r4,r4,1
    2f04:	2109883a 	add	r4,r4,r4
    2f08:	2109883a 	add	r4,r4,r4
    2f0c:	1907883a 	add	r3,r3,r4
    2f10:	290b883a 	add	r5,r5,r4
    2f14:	30000626 	beq	r6,zero,2f30 <memcpy+0x11c>
    2f18:	198d883a 	add	r6,r3,r6
    2f1c:	29c00003 	ldbu	r7,0(r5)
    2f20:	18c00044 	addi	r3,r3,1
    2f24:	29400044 	addi	r5,r5,1
    2f28:	19ffffc5 	stb	r7,-1(r3)
    2f2c:	19bffb1e 	bne	r3,r6,2f1c <__alt_mem_epcs_flash_controller_0+0xff801f1c>
    2f30:	dfc00217 	ldw	ra,8(sp)
    2f34:	dc400117 	ldw	r17,4(sp)
    2f38:	dc000017 	ldw	r16,0(sp)
    2f3c:	dec00304 	addi	sp,sp,12
    2f40:	f800283a 	ret
    2f44:	2007883a 	mov	r3,r4
    2f48:	003ff206 	br	2f14 <__alt_mem_epcs_flash_controller_0+0xff801f14>
    2f4c:	2007883a 	mov	r3,r4
    2f50:	003ff106 	br	2f18 <__alt_mem_epcs_flash_controller_0+0xff801f18>
    2f54:	200d883a 	mov	r6,r4
    2f58:	003fee06 	br	2f14 <__alt_mem_epcs_flash_controller_0+0xff801f14>

00002f5c <_printf_r>:
    2f5c:	defffd04 	addi	sp,sp,-12
    2f60:	2805883a 	mov	r2,r5
    2f64:	dfc00015 	stw	ra,0(sp)
    2f68:	d9800115 	stw	r6,4(sp)
    2f6c:	d9c00215 	stw	r7,8(sp)
    2f70:	21400217 	ldw	r5,8(r4)
    2f74:	d9c00104 	addi	r7,sp,4
    2f78:	100d883a 	mov	r6,r2
    2f7c:	0004dec0 	call	4dec <___vfprintf_internal_r>
    2f80:	dfc00017 	ldw	ra,0(sp)
    2f84:	dec00304 	addi	sp,sp,12
    2f88:	f800283a 	ret

00002f8c <printf>:
    2f8c:	defffc04 	addi	sp,sp,-16
    2f90:	dfc00015 	stw	ra,0(sp)
    2f94:	d9400115 	stw	r5,4(sp)
    2f98:	d9800215 	stw	r6,8(sp)
    2f9c:	d9c00315 	stw	r7,12(sp)
    2fa0:	008000b4 	movhi	r2,2
    2fa4:	10801c04 	addi	r2,r2,112
    2fa8:	10800017 	ldw	r2,0(r2)
    2fac:	200b883a 	mov	r5,r4
    2fb0:	d9800104 	addi	r6,sp,4
    2fb4:	11000217 	ldw	r4,8(r2)
    2fb8:	00070c80 	call	70c8 <__vfprintf_internal>
    2fbc:	dfc00017 	ldw	ra,0(sp)
    2fc0:	dec00404 	addi	sp,sp,16
    2fc4:	f800283a 	ret

00002fc8 <_putchar_r>:
    2fc8:	21800217 	ldw	r6,8(r4)
    2fcc:	000b6a01 	jmpi	b6a0 <_putc_r>

00002fd0 <putchar>:
    2fd0:	008000b4 	movhi	r2,2
    2fd4:	10801c04 	addi	r2,r2,112
    2fd8:	200b883a 	mov	r5,r4
    2fdc:	11000017 	ldw	r4,0(r2)
    2fe0:	21800217 	ldw	r6,8(r4)
    2fe4:	000b6a01 	jmpi	b6a0 <_putc_r>

00002fe8 <_puts_r>:
    2fe8:	defff604 	addi	sp,sp,-40
    2fec:	dc000715 	stw	r16,28(sp)
    2ff0:	2021883a 	mov	r16,r4
    2ff4:	2809883a 	mov	r4,r5
    2ff8:	dc400815 	stw	r17,32(sp)
    2ffc:	dfc00915 	stw	ra,36(sp)
    3000:	2823883a 	mov	r17,r5
    3004:	00033c80 	call	33c8 <strlen>
    3008:	10c00044 	addi	r3,r2,1
    300c:	d8800115 	stw	r2,4(sp)
    3010:	008000b4 	movhi	r2,2
    3014:	10b75b04 	addi	r2,r2,-8852
    3018:	d8800215 	stw	r2,8(sp)
    301c:	00800044 	movi	r2,1
    3020:	d8800315 	stw	r2,12(sp)
    3024:	00800084 	movi	r2,2
    3028:	dc400015 	stw	r17,0(sp)
    302c:	d8c00615 	stw	r3,24(sp)
    3030:	dec00415 	stw	sp,16(sp)
    3034:	d8800515 	stw	r2,20(sp)
    3038:	80000226 	beq	r16,zero,3044 <_puts_r+0x5c>
    303c:	80800e17 	ldw	r2,56(r16)
    3040:	10001426 	beq	r2,zero,3094 <_puts_r+0xac>
    3044:	81400217 	ldw	r5,8(r16)
    3048:	2880030b 	ldhu	r2,12(r5)
    304c:	10c8000c 	andi	r3,r2,8192
    3050:	1800061e 	bne	r3,zero,306c <_puts_r+0x84>
    3054:	29001917 	ldw	r4,100(r5)
    3058:	00f7ffc4 	movi	r3,-8193
    305c:	10880014 	ori	r2,r2,8192
    3060:	20c6703a 	and	r3,r4,r3
    3064:	2880030d 	sth	r2,12(r5)
    3068:	28c01915 	stw	r3,100(r5)
    306c:	d9800404 	addi	r6,sp,16
    3070:	8009883a 	mov	r4,r16
    3074:	00096e40 	call	96e4 <__sfvwrite_r>
    3078:	1000091e 	bne	r2,zero,30a0 <_puts_r+0xb8>
    307c:	00800284 	movi	r2,10
    3080:	dfc00917 	ldw	ra,36(sp)
    3084:	dc400817 	ldw	r17,32(sp)
    3088:	dc000717 	ldw	r16,28(sp)
    308c:	dec00a04 	addi	sp,sp,40
    3090:	f800283a 	ret
    3094:	8009883a 	mov	r4,r16
    3098:	00092600 	call	9260 <__sinit>
    309c:	003fe906 	br	3044 <__alt_mem_epcs_flash_controller_0+0xff802044>
    30a0:	00bfffc4 	movi	r2,-1
    30a4:	003ff606 	br	3080 <__alt_mem_epcs_flash_controller_0+0xff802080>

000030a8 <puts>:
    30a8:	008000b4 	movhi	r2,2
    30ac:	10801c04 	addi	r2,r2,112
    30b0:	200b883a 	mov	r5,r4
    30b4:	11000017 	ldw	r4,0(r2)
    30b8:	0002fe81 	jmpi	2fe8 <_puts_r>

000030bc <__srget_r>:
    30bc:	defffd04 	addi	sp,sp,-12
    30c0:	dc400115 	stw	r17,4(sp)
    30c4:	dc000015 	stw	r16,0(sp)
    30c8:	dfc00215 	stw	ra,8(sp)
    30cc:	2023883a 	mov	r17,r4
    30d0:	2821883a 	mov	r16,r5
    30d4:	20000226 	beq	r4,zero,30e0 <__srget_r+0x24>
    30d8:	20800e17 	ldw	r2,56(r4)
    30dc:	10001026 	beq	r2,zero,3120 <__srget_r+0x64>
    30e0:	800b883a 	mov	r5,r16
    30e4:	8809883a 	mov	r4,r17
    30e8:	000bde80 	call	bde8 <__srefill_r>
    30ec:	10000e1e 	bne	r2,zero,3128 <__srget_r+0x6c>
    30f0:	80c00017 	ldw	r3,0(r16)
    30f4:	80800117 	ldw	r2,4(r16)
    30f8:	19000044 	addi	r4,r3,1
    30fc:	10bfffc4 	addi	r2,r2,-1
    3100:	80800115 	stw	r2,4(r16)
    3104:	81000015 	stw	r4,0(r16)
    3108:	18800003 	ldbu	r2,0(r3)
    310c:	dfc00217 	ldw	ra,8(sp)
    3110:	dc400117 	ldw	r17,4(sp)
    3114:	dc000017 	ldw	r16,0(sp)
    3118:	dec00304 	addi	sp,sp,12
    311c:	f800283a 	ret
    3120:	00092600 	call	9260 <__sinit>
    3124:	003fee06 	br	30e0 <__alt_mem_epcs_flash_controller_0+0xff8020e0>
    3128:	00bfffc4 	movi	r2,-1
    312c:	003ff706 	br	310c <__alt_mem_epcs_flash_controller_0+0xff80210c>

00003130 <__srget>:
    3130:	008000b4 	movhi	r2,2
    3134:	10801c04 	addi	r2,r2,112
    3138:	200b883a 	mov	r5,r4
    313c:	11000017 	ldw	r4,0(r2)
    3140:	00030bc1 	jmpi	30bc <__srget_r>

00003144 <_sbrk_r>:
    3144:	defffd04 	addi	sp,sp,-12
    3148:	dc000015 	stw	r16,0(sp)
    314c:	040000b4 	movhi	r16,2
    3150:	dc400115 	stw	r17,4(sp)
    3154:	84072604 	addi	r16,r16,7320
    3158:	2023883a 	mov	r17,r4
    315c:	2809883a 	mov	r4,r5
    3160:	dfc00215 	stw	ra,8(sp)
    3164:	80000015 	stw	zero,0(r16)
    3168:	001a0dc0 	call	1a0dc <sbrk>
    316c:	00ffffc4 	movi	r3,-1
    3170:	10c00526 	beq	r2,r3,3188 <_sbrk_r+0x44>
    3174:	dfc00217 	ldw	ra,8(sp)
    3178:	dc400117 	ldw	r17,4(sp)
    317c:	dc000017 	ldw	r16,0(sp)
    3180:	dec00304 	addi	sp,sp,12
    3184:	f800283a 	ret
    3188:	80c00017 	ldw	r3,0(r16)
    318c:	183ff926 	beq	r3,zero,3174 <__alt_mem_epcs_flash_controller_0+0xff802174>
    3190:	88c00015 	stw	r3,0(r17)
    3194:	003ff706 	br	3174 <__alt_mem_epcs_flash_controller_0+0xff802174>

00003198 <sscanf>:
    3198:	deffe204 	addi	sp,sp,-120
    319c:	dc001a15 	stw	r16,104(sp)
    31a0:	2821883a 	mov	r16,r5
    31a4:	dfc01b15 	stw	ra,108(sp)
    31a8:	d9801c15 	stw	r6,112(sp)
    31ac:	d9c01d15 	stw	r7,116(sp)
    31b0:	00c08104 	movi	r3,516
    31b4:	d8c0030d 	sth	r3,12(sp)
    31b8:	d9000015 	stw	r4,0(sp)
    31bc:	d9000415 	stw	r4,16(sp)
    31c0:	00033c80 	call	33c8 <strlen>
    31c4:	00c000b4 	movhi	r3,2
    31c8:	18c01c04 	addi	r3,r3,112
    31cc:	d8800115 	stw	r2,4(sp)
    31d0:	d8800515 	stw	r2,20(sp)
    31d4:	19000017 	ldw	r4,0(r3)
    31d8:	00800034 	movhi	r2,0
    31dc:	108cb804 	addi	r2,r2,13024
    31e0:	d8800815 	stw	r2,32(sp)
    31e4:	d9c01c04 	addi	r7,sp,112
    31e8:	800d883a 	mov	r6,r16
    31ec:	d80b883a 	mov	r5,sp
    31f0:	00bfffc4 	movi	r2,-1
    31f4:	d8000c15 	stw	zero,48(sp)
    31f8:	d8001115 	stw	zero,68(sp)
    31fc:	d880038d 	sth	r2,14(sp)
    3200:	00034600 	call	3460 <__ssvfscanf_r>
    3204:	dfc01b17 	ldw	ra,108(sp)
    3208:	dc001a17 	ldw	r16,104(sp)
    320c:	dec01e04 	addi	sp,sp,120
    3210:	f800283a 	ret

00003214 <_sscanf_r>:
    3214:	deffe204 	addi	sp,sp,-120
    3218:	dc001b15 	stw	r16,108(sp)
    321c:	2021883a 	mov	r16,r4
    3220:	dfc01c15 	stw	ra,112(sp)
    3224:	d9c01d15 	stw	r7,116(sp)
    3228:	00808104 	movi	r2,516
    322c:	2809883a 	mov	r4,r5
    3230:	d9400015 	stw	r5,0(sp)
    3234:	d9400415 	stw	r5,16(sp)
    3238:	d9801a15 	stw	r6,104(sp)
    323c:	d880030d 	sth	r2,12(sp)
    3240:	00033c80 	call	33c8 <strlen>
    3244:	d8800115 	stw	r2,4(sp)
    3248:	d8800515 	stw	r2,20(sp)
    324c:	d9801a17 	ldw	r6,104(sp)
    3250:	00800034 	movhi	r2,0
    3254:	108cb804 	addi	r2,r2,13024
    3258:	d8800815 	stw	r2,32(sp)
    325c:	d9c01d04 	addi	r7,sp,116
    3260:	d80b883a 	mov	r5,sp
    3264:	8009883a 	mov	r4,r16
    3268:	00bfffc4 	movi	r2,-1
    326c:	d8000c15 	stw	zero,48(sp)
    3270:	d8001115 	stw	zero,68(sp)
    3274:	d880038d 	sth	r2,14(sp)
    3278:	00034600 	call	3460 <__ssvfscanf_r>
    327c:	dfc01c17 	ldw	ra,112(sp)
    3280:	dc001b17 	ldw	r16,108(sp)
    3284:	dec01e04 	addi	sp,sp,120
    3288:	f800283a 	ret

0000328c <__sread>:
    328c:	defffe04 	addi	sp,sp,-8
    3290:	dc000015 	stw	r16,0(sp)
    3294:	2821883a 	mov	r16,r5
    3298:	2940038f 	ldh	r5,14(r5)
    329c:	dfc00115 	stw	ra,4(sp)
    32a0:	000b8080 	call	b808 <_read_r>
    32a4:	10000716 	blt	r2,zero,32c4 <__sread+0x38>
    32a8:	80c01417 	ldw	r3,80(r16)
    32ac:	1887883a 	add	r3,r3,r2
    32b0:	80c01415 	stw	r3,80(r16)
    32b4:	dfc00117 	ldw	ra,4(sp)
    32b8:	dc000017 	ldw	r16,0(sp)
    32bc:	dec00204 	addi	sp,sp,8
    32c0:	f800283a 	ret
    32c4:	80c0030b 	ldhu	r3,12(r16)
    32c8:	18fbffcc 	andi	r3,r3,61439
    32cc:	80c0030d 	sth	r3,12(r16)
    32d0:	dfc00117 	ldw	ra,4(sp)
    32d4:	dc000017 	ldw	r16,0(sp)
    32d8:	dec00204 	addi	sp,sp,8
    32dc:	f800283a 	ret

000032e0 <__seofread>:
    32e0:	0005883a 	mov	r2,zero
    32e4:	f800283a 	ret

000032e8 <__swrite>:
    32e8:	2880030b 	ldhu	r2,12(r5)
    32ec:	defffb04 	addi	sp,sp,-20
    32f0:	dcc00315 	stw	r19,12(sp)
    32f4:	dc800215 	stw	r18,8(sp)
    32f8:	dc400115 	stw	r17,4(sp)
    32fc:	dc000015 	stw	r16,0(sp)
    3300:	dfc00415 	stw	ra,16(sp)
    3304:	10c0400c 	andi	r3,r2,256
    3308:	2821883a 	mov	r16,r5
    330c:	2023883a 	mov	r17,r4
    3310:	3025883a 	mov	r18,r6
    3314:	3827883a 	mov	r19,r7
    3318:	18000526 	beq	r3,zero,3330 <__swrite+0x48>
    331c:	2940038f 	ldh	r5,14(r5)
    3320:	01c00084 	movi	r7,2
    3324:	000d883a 	mov	r6,zero
    3328:	0009e400 	call	9e40 <_lseek_r>
    332c:	8080030b 	ldhu	r2,12(r16)
    3330:	8140038f 	ldh	r5,14(r16)
    3334:	10bbffcc 	andi	r2,r2,61439
    3338:	980f883a 	mov	r7,r19
    333c:	900d883a 	mov	r6,r18
    3340:	8809883a 	mov	r4,r17
    3344:	8080030d 	sth	r2,12(r16)
    3348:	dfc00417 	ldw	ra,16(sp)
    334c:	dcc00317 	ldw	r19,12(sp)
    3350:	dc800217 	ldw	r18,8(sp)
    3354:	dc400117 	ldw	r17,4(sp)
    3358:	dc000017 	ldw	r16,0(sp)
    335c:	dec00504 	addi	sp,sp,20
    3360:	00071a01 	jmpi	71a0 <_write_r>

00003364 <__sseek>:
    3364:	defffe04 	addi	sp,sp,-8
    3368:	dc000015 	stw	r16,0(sp)
    336c:	2821883a 	mov	r16,r5
    3370:	2940038f 	ldh	r5,14(r5)
    3374:	dfc00115 	stw	ra,4(sp)
    3378:	0009e400 	call	9e40 <_lseek_r>
    337c:	00ffffc4 	movi	r3,-1
    3380:	10c00826 	beq	r2,r3,33a4 <__sseek+0x40>
    3384:	80c0030b 	ldhu	r3,12(r16)
    3388:	80801415 	stw	r2,80(r16)
    338c:	18c40014 	ori	r3,r3,4096
    3390:	80c0030d 	sth	r3,12(r16)
    3394:	dfc00117 	ldw	ra,4(sp)
    3398:	dc000017 	ldw	r16,0(sp)
    339c:	dec00204 	addi	sp,sp,8
    33a0:	f800283a 	ret
    33a4:	80c0030b 	ldhu	r3,12(r16)
    33a8:	18fbffcc 	andi	r3,r3,61439
    33ac:	80c0030d 	sth	r3,12(r16)
    33b0:	dfc00117 	ldw	ra,4(sp)
    33b4:	dc000017 	ldw	r16,0(sp)
    33b8:	dec00204 	addi	sp,sp,8
    33bc:	f800283a 	ret

000033c0 <__sclose>:
    33c0:	2940038f 	ldh	r5,14(r5)
    33c4:	00073541 	jmpi	7354 <_close_r>

000033c8 <strlen>:
    33c8:	208000cc 	andi	r2,r4,3
    33cc:	10002026 	beq	r2,zero,3450 <strlen+0x88>
    33d0:	20800007 	ldb	r2,0(r4)
    33d4:	10002026 	beq	r2,zero,3458 <strlen+0x90>
    33d8:	2005883a 	mov	r2,r4
    33dc:	00000206 	br	33e8 <strlen+0x20>
    33e0:	10c00007 	ldb	r3,0(r2)
    33e4:	18001826 	beq	r3,zero,3448 <strlen+0x80>
    33e8:	10800044 	addi	r2,r2,1
    33ec:	10c000cc 	andi	r3,r2,3
    33f0:	183ffb1e 	bne	r3,zero,33e0 <__alt_mem_epcs_flash_controller_0+0xff8023e0>
    33f4:	10c00017 	ldw	r3,0(r2)
    33f8:	01ffbff4 	movhi	r7,65279
    33fc:	39ffbfc4 	addi	r7,r7,-257
    3400:	00ca303a 	nor	r5,zero,r3
    3404:	01a02074 	movhi	r6,32897
    3408:	19c7883a 	add	r3,r3,r7
    340c:	31a02004 	addi	r6,r6,-32640
    3410:	1946703a 	and	r3,r3,r5
    3414:	1986703a 	and	r3,r3,r6
    3418:	1800091e 	bne	r3,zero,3440 <strlen+0x78>
    341c:	10800104 	addi	r2,r2,4
    3420:	10c00017 	ldw	r3,0(r2)
    3424:	19cb883a 	add	r5,r3,r7
    3428:	00c6303a 	nor	r3,zero,r3
    342c:	28c6703a 	and	r3,r5,r3
    3430:	1986703a 	and	r3,r3,r6
    3434:	183ff926 	beq	r3,zero,341c <__alt_mem_epcs_flash_controller_0+0xff80241c>
    3438:	00000106 	br	3440 <strlen+0x78>
    343c:	10800044 	addi	r2,r2,1
    3440:	10c00007 	ldb	r3,0(r2)
    3444:	183ffd1e 	bne	r3,zero,343c <__alt_mem_epcs_flash_controller_0+0xff80243c>
    3448:	1105c83a 	sub	r2,r2,r4
    344c:	f800283a 	ret
    3450:	2005883a 	mov	r2,r4
    3454:	003fe706 	br	33f4 <__alt_mem_epcs_flash_controller_0+0xff8023f4>
    3458:	0005883a 	mov	r2,zero
    345c:	f800283a 	ret

00003460 <__ssvfscanf_r>:
    3460:	2880030b 	ldhu	r2,12(r5)
    3464:	deff4b04 	addi	sp,sp,-724
    3468:	df00b315 	stw	fp,716(sp)
    346c:	ddc0b215 	stw	r23,712(sp)
    3470:	dfc0b415 	stw	ra,720(sp)
    3474:	dd80b115 	stw	r22,708(sp)
    3478:	dd40b015 	stw	r21,704(sp)
    347c:	dd00af15 	stw	r20,700(sp)
    3480:	dcc0ae15 	stw	r19,696(sp)
    3484:	dc80ad15 	stw	r18,692(sp)
    3488:	dc40ac15 	stw	r17,688(sp)
    348c:	dc00ab15 	stw	r16,684(sp)
    3490:	10c8000c 	andi	r3,r2,8192
    3494:	d9c09c15 	stw	r7,624(sp)
    3498:	2839883a 	mov	fp,r5
    349c:	202f883a 	mov	r23,r4
    34a0:	1800061e 	bne	r3,zero,34bc <__ssvfscanf_r+0x5c>
    34a4:	29001917 	ldw	r4,100(r5)
    34a8:	00f7ffc4 	movi	r3,-8193
    34ac:	10880014 	ori	r2,r2,8192
    34b0:	20c6703a 	and	r3,r4,r3
    34b4:	2880030d 	sth	r2,12(r5)
    34b8:	28c01915 	stw	r3,100(r5)
    34bc:	30800003 	ldbu	r2,0(r6)
    34c0:	0021883a 	mov	r16,zero
    34c4:	058000b4 	movhi	r22,2
    34c8:	d800a115 	stw	zero,644(sp)
    34cc:	d8009e15 	stw	zero,632(sp)
    34d0:	d800a015 	stw	zero,640(sp)
    34d4:	d8809b15 	stw	r2,620(sp)
    34d8:	b5801f04 	addi	r22,r22,124
    34dc:	8025883a 	mov	r18,r16
    34e0:	e027883a 	mov	r19,fp
    34e4:	35000044 	addi	r20,r6,1
    34e8:	10001e26 	beq	r2,zero,3564 <__ssvfscanf_r+0x104>
    34ec:	b4000017 	ldw	r16,0(r22)
    34f0:	8087883a 	add	r3,r16,r2
    34f4:	18c00043 	ldbu	r3,1(r3)
    34f8:	18c0020c 	andi	r3,r3,8
    34fc:	18001b26 	beq	r3,zero,356c <__ssvfscanf_r+0x10c>
    3500:	98800117 	ldw	r2,4(r19)
    3504:	00800e0e 	bge	zero,r2,3540 <__ssvfscanf_r+0xe0>
    3508:	98c00017 	ldw	r3,0(r19)
    350c:	b1000017 	ldw	r4,0(r22)
    3510:	18800003 	ldbu	r2,0(r3)
    3514:	2085883a 	add	r2,r4,r2
    3518:	10800043 	ldbu	r2,1(r2)
    351c:	1080020c 	andi	r2,r2,8
    3520:	10000b26 	beq	r2,zero,3550 <__ssvfscanf_r+0xf0>
    3524:	98800117 	ldw	r2,4(r19)
    3528:	18c00044 	addi	r3,r3,1
    352c:	98c00015 	stw	r3,0(r19)
    3530:	10bfffc4 	addi	r2,r2,-1
    3534:	98800115 	stw	r2,4(r19)
    3538:	94800044 	addi	r18,r18,1
    353c:	00bff216 	blt	zero,r2,3508 <__alt_mem_epcs_flash_controller_0+0xff802508>
    3540:	980b883a 	mov	r5,r19
    3544:	b809883a 	mov	r4,r23
    3548:	000e63c0 	call	e63c <__ssrefill_r>
    354c:	103fee26 	beq	r2,zero,3508 <__alt_mem_epcs_flash_controller_0+0xff802508>
    3550:	a00d883a 	mov	r6,r20
    3554:	30800003 	ldbu	r2,0(r6)
    3558:	35000044 	addi	r20,r6,1
    355c:	d8809b15 	stw	r2,620(sp)
    3560:	103fe21e 	bne	r2,zero,34ec <__alt_mem_epcs_flash_controller_0+0xff8024ec>
    3564:	d880a017 	ldw	r2,640(sp)
    3568:	00009a06 	br	37d4 <__ssvfscanf_r+0x374>
    356c:	00c00944 	movi	r3,37
    3570:	10c0891e 	bne	r2,r3,3798 <__ssvfscanf_r+0x338>
    3574:	0039883a 	mov	fp,zero
    3578:	35400043 	ldbu	r21,1(r6)
    357c:	0023883a 	mov	r17,zero
    3580:	01801e04 	movi	r6,120
    3584:	00c01b04 	movi	r3,108
    3588:	e009883a 	mov	r4,fp
    358c:	a1c00044 	addi	r7,r20,1
    3590:	3540a236 	bltu	r6,r21,381c <__ssvfscanf_r+0x3bc>
    3594:	a80490ba 	slli	r2,r21,2
    3598:	01400034 	movhi	r5,0
    359c:	294d6b04 	addi	r5,r5,13740
    35a0:	1145883a 	add	r2,r2,r5
    35a4:	10800017 	ldw	r2,0(r2)
    35a8:	1000683a 	jmp	r2
    35ac:	000037d0 	cmplti	zero,zero,223
    35b0:	0000381c 	xori	zero,zero,224
    35b4:	0000381c 	xori	zero,zero,224
    35b8:	0000381c 	xori	zero,zero,224
    35bc:	0000381c 	xori	zero,zero,224
    35c0:	0000381c 	xori	zero,zero,224
    35c4:	0000381c 	xori	zero,zero,224
    35c8:	0000381c 	xori	zero,zero,224
    35cc:	0000381c 	xori	zero,zero,224
    35d0:	0000381c 	xori	zero,zero,224
    35d4:	0000381c 	xori	zero,zero,224
    35d8:	0000381c 	xori	zero,zero,224
    35dc:	0000381c 	xori	zero,zero,224
    35e0:	0000381c 	xori	zero,zero,224
    35e4:	0000381c 	xori	zero,zero,224
    35e8:	0000381c 	xori	zero,zero,224
    35ec:	0000381c 	xori	zero,zero,224
    35f0:	0000381c 	xori	zero,zero,224
    35f4:	0000381c 	xori	zero,zero,224
    35f8:	0000381c 	xori	zero,zero,224
    35fc:	0000381c 	xori	zero,zero,224
    3600:	0000381c 	xori	zero,zero,224
    3604:	0000381c 	xori	zero,zero,224
    3608:	0000381c 	xori	zero,zero,224
    360c:	0000381c 	xori	zero,zero,224
    3610:	0000381c 	xori	zero,zero,224
    3614:	0000381c 	xori	zero,zero,224
    3618:	0000381c 	xori	zero,zero,224
    361c:	0000381c 	xori	zero,zero,224
    3620:	0000381c 	xori	zero,zero,224
    3624:	0000381c 	xori	zero,zero,224
    3628:	0000381c 	xori	zero,zero,224
    362c:	0000381c 	xori	zero,zero,224
    3630:	0000381c 	xori	zero,zero,224
    3634:	0000381c 	xori	zero,zero,224
    3638:	0000381c 	xori	zero,zero,224
    363c:	0000381c 	xori	zero,zero,224
    3640:	00003790 	cmplti	zero,zero,222
    3644:	0000381c 	xori	zero,zero,224
    3648:	0000381c 	xori	zero,zero,224
    364c:	0000381c 	xori	zero,zero,224
    3650:	0000381c 	xori	zero,zero,224
    3654:	00003804 	movi	zero,224
    3658:	0000381c 	xori	zero,zero,224
    365c:	0000381c 	xori	zero,zero,224
    3660:	0000381c 	xori	zero,zero,224
    3664:	0000381c 	xori	zero,zero,224
    3668:	0000381c 	xori	zero,zero,224
    366c:	00003964 	muli	zero,zero,229
    3670:	00003964 	muli	zero,zero,229
    3674:	00003964 	muli	zero,zero,229
    3678:	00003964 	muli	zero,zero,229
    367c:	00003964 	muli	zero,zero,229
    3680:	00003964 	muli	zero,zero,229
    3684:	00003964 	muli	zero,zero,229
    3688:	00003964 	muli	zero,zero,229
    368c:	00003964 	muli	zero,zero,229
    3690:	00003964 	muli	zero,zero,229
    3694:	0000381c 	xori	zero,zero,224
    3698:	0000381c 	xori	zero,zero,224
    369c:	0000381c 	xori	zero,zero,224
    36a0:	0000381c 	xori	zero,zero,224
    36a4:	0000381c 	xori	zero,zero,224
    36a8:	0000381c 	xori	zero,zero,224
    36ac:	0000381c 	xori	zero,zero,224
    36b0:	0000381c 	xori	zero,zero,224
    36b4:	0000381c 	xori	zero,zero,224
    36b8:	0000381c 	xori	zero,zero,224
    36bc:	00003934 	movhi	zero,228
    36c0:	00003a10 	cmplti	zero,zero,232
    36c4:	0000381c 	xori	zero,zero,224
    36c8:	00003a10 	cmplti	zero,zero,232
    36cc:	0000381c 	xori	zero,zero,224
    36d0:	0000381c 	xori	zero,zero,224
    36d4:	0000381c 	xori	zero,zero,224
    36d8:	0000381c 	xori	zero,zero,224
    36dc:	000039fc 	xorhi	zero,zero,231
    36e0:	0000381c 	xori	zero,zero,224
    36e4:	0000381c 	xori	zero,zero,224
    36e8:	000039cc 	andi	zero,zero,231
    36ec:	0000381c 	xori	zero,zero,224
    36f0:	0000381c 	xori	zero,zero,224
    36f4:	0000381c 	xori	zero,zero,224
    36f8:	0000381c 	xori	zero,zero,224
    36fc:	0000381c 	xori	zero,zero,224
    3700:	0000381c 	xori	zero,zero,224
    3704:	0000381c 	xori	zero,zero,224
    3708:	0000381c 	xori	zero,zero,224
    370c:	0000399c 	xori	zero,zero,230
    3710:	0000381c 	xori	zero,zero,224
    3714:	0000381c 	xori	zero,zero,224
    3718:	00003b58 	cmpnei	zero,zero,237
    371c:	0000381c 	xori	zero,zero,224
    3720:	0000381c 	xori	zero,zero,224
    3724:	0000381c 	xori	zero,zero,224
    3728:	0000381c 	xori	zero,zero,224
    372c:	0000381c 	xori	zero,zero,224
    3730:	0000381c 	xori	zero,zero,224
    3734:	0000381c 	xori	zero,zero,224
    3738:	00003ad8 	cmpnei	zero,zero,235
    373c:	00003aac 	andhi	zero,zero,234
    3740:	00003a10 	cmplti	zero,zero,232
    3744:	00003a10 	cmplti	zero,zero,232
    3748:	00003a10 	cmplti	zero,zero,232
    374c:	00003a98 	cmpnei	zero,zero,234
    3750:	00003be8 	cmpgeui	zero,zero,239
    3754:	0000381c 	xori	zero,zero,224
    3758:	0000381c 	xori	zero,zero,224
    375c:	00003a84 	movi	zero,234
    3760:	0000381c 	xori	zero,zero,224
    3764:	00003a54 	movui	zero,233
    3768:	00003a28 	cmpgeui	zero,zero,232
    376c:	00003904 	movi	zero,228
    3770:	0000381c 	xori	zero,zero,224
    3774:	0000381c 	xori	zero,zero,224
    3778:	000038ec 	andhi	zero,zero,227
    377c:	0000381c 	xori	zero,zero,224
    3780:	00003870 	cmpltui	zero,zero,225
    3784:	0000381c 	xori	zero,zero,224
    3788:	0000381c 	xori	zero,zero,224
    378c:	0000399c 	xori	zero,zero,230
    3790:	d9c09d15 	stw	r7,628(sp)
    3794:	3829883a 	mov	r20,r7
    3798:	98800117 	ldw	r2,4(r19)
    379c:	0081c60e 	bge	zero,r2,3eb8 <__ssvfscanf_r+0xa58>
    37a0:	98800017 	ldw	r2,0(r19)
    37a4:	a0ffffc3 	ldbu	r3,-1(r20)
    37a8:	11000003 	ldbu	r4,0(r2)
    37ac:	20ff6d1e 	bne	r4,r3,3564 <__alt_mem_epcs_flash_controller_0+0xff802564>
    37b0:	98c00117 	ldw	r3,4(r19)
    37b4:	10800044 	addi	r2,r2,1
    37b8:	98800015 	stw	r2,0(r19)
    37bc:	18bfffc4 	addi	r2,r3,-1
    37c0:	98800115 	stw	r2,4(r19)
    37c4:	94800044 	addi	r18,r18,1
    37c8:	a00d883a 	mov	r6,r20
    37cc:	003f6106 	br	3554 <__alt_mem_epcs_flash_controller_0+0xff802554>
    37d0:	00bfffc4 	movi	r2,-1
    37d4:	dfc0b417 	ldw	ra,720(sp)
    37d8:	df00b317 	ldw	fp,716(sp)
    37dc:	ddc0b217 	ldw	r23,712(sp)
    37e0:	dd80b117 	ldw	r22,708(sp)
    37e4:	dd40b017 	ldw	r21,704(sp)
    37e8:	dd00af17 	ldw	r20,700(sp)
    37ec:	dcc0ae17 	ldw	r19,696(sp)
    37f0:	dc80ad17 	ldw	r18,692(sp)
    37f4:	dc40ac17 	ldw	r17,688(sp)
    37f8:	dc00ab17 	ldw	r16,684(sp)
    37fc:	dec0b504 	addi	sp,sp,724
    3800:	f800283a 	ret
    3804:	a1400043 	ldbu	r5,1(r20)
    3808:	3829883a 	mov	r20,r7
    380c:	8c400414 	ori	r17,r17,16
    3810:	2d403fcc 	andi	r21,r5,255
    3814:	a1c00044 	addi	r7,r20,1
    3818:	357f5e2e 	bgeu	r6,r21,3594 <__alt_mem_epcs_flash_controller_0+0xff802594>
    381c:	856b883a 	add	r21,r16,r21
    3820:	a8800043 	ldbu	r2,1(r21)
    3824:	d9c09d15 	stw	r7,628(sp)
    3828:	00c00044 	movi	r3,1
    382c:	108000cc 	andi	r2,r2,3
    3830:	2039883a 	mov	fp,r4
    3834:	10c1a526 	beq	r2,r3,3ecc <__ssvfscanf_r+0xa6c>
    3838:	98800117 	ldw	r2,4(r19)
    383c:	00804216 	blt	zero,r2,3948 <__ssvfscanf_r+0x4e8>
    3840:	980b883a 	mov	r5,r19
    3844:	b809883a 	mov	r4,r23
    3848:	000e63c0 	call	e63c <__ssrefill_r>
    384c:	10015e1e 	bne	r2,zero,3dc8 <__ssvfscanf_r+0x968>
    3850:	01000074 	movhi	r4,1
    3854:	21368204 	addi	r4,r4,-9720
    3858:	01400284 	movi	r5,10
    385c:	b4000017 	ldw	r16,0(r22)
    3860:	d900a115 	stw	r4,644(sp)
    3864:	d9409e15 	stw	r5,632(sp)
    3868:	050000c4 	movi	r20,3
    386c:	00000a06 	br	3898 <__ssvfscanf_r+0x438>
    3870:	98800117 	ldw	r2,4(r19)
    3874:	d9c09d15 	stw	r7,628(sp)
    3878:	2039883a 	mov	fp,r4
    387c:	0081e20e 	bge	zero,r2,4008 <__ssvfscanf_r+0xba8>
    3880:	00c00074 	movhi	r3,1
    3884:	18f7e004 	addi	r3,r3,-8320
    3888:	01000284 	movi	r4,10
    388c:	d8c0a115 	stw	r3,644(sp)
    3890:	d9009e15 	stw	r4,632(sp)
    3894:	050000c4 	movi	r20,3
    3898:	98c00017 	ldw	r3,0(r19)
    389c:	00000206 	br	38a8 <__ssvfscanf_r+0x448>
    38a0:	18c00044 	addi	r3,r3,1
    38a4:	98c00015 	stw	r3,0(r19)
    38a8:	19000003 	ldbu	r4,0(r3)
    38ac:	20803fcc 	andi	r2,r4,255
    38b0:	8085883a 	add	r2,r16,r2
    38b4:	10800043 	ldbu	r2,1(r2)
    38b8:	1140020c 	andi	r5,r2,8
    38bc:	28020126 	beq	r5,zero,40c4 <__ssvfscanf_r+0xc64>
    38c0:	98800117 	ldw	r2,4(r19)
    38c4:	94800044 	addi	r18,r18,1
    38c8:	10bfffc4 	addi	r2,r2,-1
    38cc:	98800115 	stw	r2,4(r19)
    38d0:	00bff316 	blt	zero,r2,38a0 <__alt_mem_epcs_flash_controller_0+0xff8028a0>
    38d4:	980b883a 	mov	r5,r19
    38d8:	b809883a 	mov	r4,r23
    38dc:	000e63c0 	call	e63c <__ssrefill_r>
    38e0:	1001391e 	bne	r2,zero,3dc8 <__ssvfscanf_r+0x968>
    38e4:	b4000017 	ldw	r16,0(r22)
    38e8:	003feb06 	br	3898 <__alt_mem_epcs_flash_controller_0+0xff802898>
    38ec:	98800117 	ldw	r2,4(r19)
    38f0:	d9c09d15 	stw	r7,628(sp)
    38f4:	2039883a 	mov	fp,r4
    38f8:	0081aa0e 	bge	zero,r2,3fa4 <__ssvfscanf_r+0xb44>
    38fc:	05000084 	movi	r20,2
    3900:	003fe506 	br	3898 <__alt_mem_epcs_flash_controller_0+0xff802898>
    3904:	98800117 	ldw	r2,4(r19)
    3908:	d9c09d15 	stw	r7,628(sp)
    390c:	2039883a 	mov	fp,r4
    3910:	8c408814 	ori	r17,r17,544
    3914:	0081df0e 	bge	zero,r2,4094 <__ssvfscanf_r+0xc34>
    3918:	00c00074 	movhi	r3,1
    391c:	18f7e004 	addi	r3,r3,-8320
    3920:	01000404 	movi	r4,16
    3924:	d8c0a115 	stw	r3,644(sp)
    3928:	d9009e15 	stw	r4,632(sp)
    392c:	050000c4 	movi	r20,3
    3930:	003fd906 	br	3898 <__alt_mem_epcs_flash_controller_0+0xff802898>
    3934:	98800117 	ldw	r2,4(r19)
    3938:	d9c09d15 	stw	r7,628(sp)
    393c:	2039883a 	mov	fp,r4
    3940:	8c400054 	ori	r17,r17,1
    3944:	0081850e 	bge	zero,r2,3f5c <__ssvfscanf_r+0xafc>
    3948:	00c00074 	movhi	r3,1
    394c:	18f68204 	addi	r3,r3,-9720
    3950:	01000284 	movi	r4,10
    3954:	d8c0a115 	stw	r3,644(sp)
    3958:	d9009e15 	stw	r4,632(sp)
    395c:	050000c4 	movi	r20,3
    3960:	003fcd06 	br	3898 <__alt_mem_epcs_flash_controller_0+0xff802898>
    3964:	01400284 	movi	r5,10
    3968:	d8c0a615 	stw	r3,664(sp)
    396c:	d980a915 	stw	r6,676(sp)
    3970:	d9c0aa15 	stw	r7,680(sp)
    3974:	00024440 	call	2444 <__mulsi3>
    3978:	a1400043 	ldbu	r5,1(r20)
    397c:	d9c0aa17 	ldw	r7,680(sp)
    3980:	1545883a 	add	r2,r2,r21
    3984:	113ff404 	addi	r4,r2,-48
    3988:	3829883a 	mov	r20,r7
    398c:	2d403fcc 	andi	r21,r5,255
    3990:	d8c0a617 	ldw	r3,664(sp)
    3994:	d980a917 	ldw	r6,676(sp)
    3998:	003efc06 	br	358c <__alt_mem_epcs_flash_controller_0+0xff80258c>
    399c:	98800117 	ldw	r2,4(r19)
    39a0:	d9c09d15 	stw	r7,628(sp)
    39a4:	2039883a 	mov	fp,r4
    39a8:	8c408014 	ori	r17,r17,512
    39ac:	0081710e 	bge	zero,r2,3f74 <__ssvfscanf_r+0xb14>
    39b0:	01400074 	movhi	r5,1
    39b4:	2977e004 	addi	r5,r5,-8320
    39b8:	00800404 	movi	r2,16
    39bc:	d940a115 	stw	r5,644(sp)
    39c0:	d8809e15 	stw	r2,632(sp)
    39c4:	050000c4 	movi	r20,3
    39c8:	003fb306 	br	3898 <__alt_mem_epcs_flash_controller_0+0xff802898>
    39cc:	98800117 	ldw	r2,4(r19)
    39d0:	d9c09d15 	stw	r7,628(sp)
    39d4:	2039883a 	mov	fp,r4
    39d8:	8c400054 	ori	r17,r17,1
    39dc:	0081840e 	bge	zero,r2,3ff0 <__ssvfscanf_r+0xb90>
    39e0:	01400074 	movhi	r5,1
    39e4:	2977e004 	addi	r5,r5,-8320
    39e8:	00800204 	movi	r2,8
    39ec:	d940a115 	stw	r5,644(sp)
    39f0:	d8809e15 	stw	r2,632(sp)
    39f4:	050000c4 	movi	r20,3
    39f8:	003fa706 	br	3898 <__alt_mem_epcs_flash_controller_0+0xff802898>
    39fc:	a1400043 	ldbu	r5,1(r20)
    3a00:	8c400094 	ori	r17,r17,2
    3a04:	3829883a 	mov	r20,r7
    3a08:	2d403fcc 	andi	r21,r5,255
    3a0c:	003edf06 	br	358c <__alt_mem_epcs_flash_controller_0+0xff80258c>
    3a10:	98800117 	ldw	r2,4(r19)
    3a14:	d9c09d15 	stw	r7,628(sp)
    3a18:	2039883a 	mov	fp,r4
    3a1c:	00816d0e 	bge	zero,r2,3fd4 <__ssvfscanf_r+0xb74>
    3a20:	05000104 	movi	r20,4
    3a24:	003f9c06 	br	3898 <__alt_mem_epcs_flash_controller_0+0xff802898>
    3a28:	98800117 	ldw	r2,4(r19)
    3a2c:	d9c09d15 	stw	r7,628(sp)
    3a30:	2039883a 	mov	fp,r4
    3a34:	0081800e 	bge	zero,r2,4038 <__ssvfscanf_r+0xbd8>
    3a38:	01000074 	movhi	r4,1
    3a3c:	2137e004 	addi	r4,r4,-8320
    3a40:	01400204 	movi	r5,8
    3a44:	d900a115 	stw	r4,644(sp)
    3a48:	d9409e15 	stw	r5,632(sp)
    3a4c:	050000c4 	movi	r20,3
    3a50:	003f9106 	br	3898 <__alt_mem_epcs_flash_controller_0+0xff802898>
    3a54:	d9c09d15 	stw	r7,628(sp)
    3a58:	8880040c 	andi	r2,r17,16
    3a5c:	1000a01e 	bne	r2,zero,3ce0 <__ssvfscanf_r+0x880>
    3a60:	8880010c 	andi	r2,r17,4
    3a64:	10012826 	beq	r2,zero,3f08 <__ssvfscanf_r+0xaa8>
    3a68:	d9009c17 	ldw	r4,624(sp)
    3a6c:	3829883a 	mov	r20,r7
    3a70:	20800017 	ldw	r2,0(r4)
    3a74:	21000104 	addi	r4,r4,4
    3a78:	d9009c15 	stw	r4,624(sp)
    3a7c:	1480000d 	sth	r18,0(r2)
    3a80:	003eb306 	br	3550 <__alt_mem_epcs_flash_controller_0+0xff802550>
    3a84:	a5400043 	ldbu	r21,1(r20)
    3a88:	a8c11a26 	beq	r21,r3,3ef4 <__ssvfscanf_r+0xa94>
    3a8c:	8c400054 	ori	r17,r17,1
    3a90:	3829883a 	mov	r20,r7
    3a94:	003ebd06 	br	358c <__alt_mem_epcs_flash_controller_0+0xff80258c>
    3a98:	a1400043 	ldbu	r5,1(r20)
    3a9c:	8c400114 	ori	r17,r17,4
    3aa0:	3829883a 	mov	r20,r7
    3aa4:	2d403fcc 	andi	r21,r5,255
    3aa8:	003eb806 	br	358c <__alt_mem_epcs_flash_controller_0+0xff80258c>
    3aac:	98800117 	ldw	r2,4(r19)
    3ab0:	d9c09d15 	stw	r7,628(sp)
    3ab4:	2039883a 	mov	fp,r4
    3ab8:	00bf610e 	bge	zero,r2,3840 <__alt_mem_epcs_flash_controller_0+0xff802840>
    3abc:	00800074 	movhi	r2,1
    3ac0:	10b68204 	addi	r2,r2,-9720
    3ac4:	00c00284 	movi	r3,10
    3ac8:	d880a115 	stw	r2,644(sp)
    3acc:	d8c09e15 	stw	r3,632(sp)
    3ad0:	050000c4 	movi	r20,3
    3ad4:	003f7006 	br	3898 <__alt_mem_epcs_flash_controller_0+0xff802898>
    3ad8:	98800117 	ldw	r2,4(r19)
    3adc:	d9c09d15 	stw	r7,628(sp)
    3ae0:	2039883a 	mov	fp,r4
    3ae4:	0080c60e 	bge	zero,r2,3e00 <__ssvfscanf_r+0x9a0>
    3ae8:	e000011e 	bne	fp,zero,3af0 <__ssvfscanf_r+0x690>
    3aec:	07000044 	movi	fp,1
    3af0:	8880004c 	andi	r2,r17,1
    3af4:	1000461e 	bne	r2,zero,3c10 <__ssvfscanf_r+0x7b0>
    3af8:	8c40040c 	andi	r17,r17,16
    3afc:	8800dc26 	beq	r17,zero,3e70 <__ssvfscanf_r+0xa10>
    3b00:	0021883a 	mov	r16,zero
    3b04:	00000806 	br	3b28 <__ssvfscanf_r+0x6c8>
    3b08:	1887883a 	add	r3,r3,r2
    3b0c:	980b883a 	mov	r5,r19
    3b10:	b809883a 	mov	r4,r23
    3b14:	98c00015 	stw	r3,0(r19)
    3b18:	80a1883a 	add	r16,r16,r2
    3b1c:	e0b9c83a 	sub	fp,fp,r2
    3b20:	000e63c0 	call	e63c <__ssrefill_r>
    3b24:	1000cc1e 	bne	r2,zero,3e58 <__ssvfscanf_r+0x9f8>
    3b28:	98800117 	ldw	r2,4(r19)
    3b2c:	98c00017 	ldw	r3,0(r19)
    3b30:	173ff516 	blt	r2,fp,3b08 <__alt_mem_epcs_flash_controller_0+0xff802b08>
    3b34:	1705c83a 	sub	r2,r2,fp
    3b38:	1f15883a 	add	r10,r3,fp
    3b3c:	8721883a 	add	r16,r16,fp
    3b40:	98800115 	stw	r2,4(r19)
    3b44:	9a800015 	stw	r10,0(r19)
    3b48:	dd009d17 	ldw	r20,628(sp)
    3b4c:	9425883a 	add	r18,r18,r16
    3b50:	a00d883a 	mov	r6,r20
    3b54:	003e7f06 	br	3554 <__alt_mem_epcs_flash_controller_0+0xff802554>
    3b58:	2039883a 	mov	fp,r4
    3b5c:	380b883a 	mov	r5,r7
    3b60:	d9005884 	addi	r4,sp,354
    3b64:	d9c09d15 	stw	r7,628(sp)
    3b68:	000c0300 	call	c030 <__sccl>
    3b6c:	1029883a 	mov	r20,r2
    3b70:	98800117 	ldw	r2,4(r19)
    3b74:	0081120e 	bge	zero,r2,3fc0 <__ssvfscanf_r+0xb60>
    3b78:	99000017 	ldw	r4,0(r19)
    3b7c:	20800003 	ldbu	r2,0(r4)
    3b80:	e0005a26 	beq	fp,zero,3cec <__ssvfscanf_r+0x88c>
    3b84:	8c40040c 	andi	r17,r17,16
    3b88:	88005b26 	beq	r17,zero,3cf8 <__ssvfscanf_r+0x898>
    3b8c:	e023883a 	mov	r17,fp
    3b90:	0021883a 	mov	r16,zero
    3b94:	00000106 	br	3b9c <__ssvfscanf_r+0x73c>
    3b98:	20800003 	ldbu	r2,0(r4)
    3b9c:	10803fcc 	andi	r2,r2,255
    3ba0:	d8c05884 	addi	r3,sp,354
    3ba4:	1885883a 	add	r2,r3,r2
    3ba8:	10800007 	ldb	r2,0(r2)
    3bac:	1000ae26 	beq	r2,zero,3e68 <__ssvfscanf_r+0xa08>
    3bb0:	98800117 	ldw	r2,4(r19)
    3bb4:	21000044 	addi	r4,r4,1
    3bb8:	84000044 	addi	r16,r16,1
    3bbc:	10bfffc4 	addi	r2,r2,-1
    3bc0:	98800115 	stw	r2,4(r19)
    3bc4:	99000015 	stw	r4,0(r19)
    3bc8:	8700a126 	beq	r16,fp,3e50 <__ssvfscanf_r+0x9f0>
    3bcc:	00bff216 	blt	zero,r2,3b98 <__alt_mem_epcs_flash_controller_0+0xff802b98>
    3bd0:	980b883a 	mov	r5,r19
    3bd4:	b809883a 	mov	r4,r23
    3bd8:	000e63c0 	call	e63c <__ssrefill_r>
    3bdc:	10009b1e 	bne	r2,zero,3e4c <__ssvfscanf_r+0x9ec>
    3be0:	99000017 	ldw	r4,0(r19)
    3be4:	003fec06 	br	3b98 <__alt_mem_epcs_flash_controller_0+0xff802b98>
    3be8:	98800117 	ldw	r2,4(r19)
    3bec:	d9c09d15 	stw	r7,628(sp)
    3bf0:	2039883a 	mov	fp,r4
    3bf4:	00811c0e 	bge	zero,r2,4068 <__ssvfscanf_r+0xc08>
    3bf8:	01400074 	movhi	r5,1
    3bfc:	29768204 	addi	r5,r5,-9720
    3c00:	d940a115 	stw	r5,644(sp)
    3c04:	d8009e15 	stw	zero,632(sp)
    3c08:	050000c4 	movi	r20,3
    3c0c:	003f2206 	br	3898 <__alt_mem_epcs_flash_controller_0+0xff802898>
    3c10:	dd409904 	addi	r21,sp,612
    3c14:	8c40040c 	andi	r17,r17,16
    3c18:	01800204 	movi	r6,8
    3c1c:	000b883a 	mov	r5,zero
    3c20:	a809883a 	mov	r4,r21
    3c24:	dc409f15 	stw	r17,636(sp)
    3c28:	000a4c00 	call	a4c0 <memset>
    3c2c:	dc409f17 	ldw	r17,636(sp)
    3c30:	88006e26 	beq	r17,zero,3dec <__ssvfscanf_r+0x98c>
    3c34:	0029883a 	mov	r20,zero
    3c38:	0023883a 	mov	r17,zero
    3c3c:	0009dec0 	call	9dec <__locale_mb_cur_max>
    3c40:	14406126 	beq	r2,r17,3dc8 <__ssvfscanf_r+0x968>
    3c44:	98800017 	ldw	r2,0(r19)
    3c48:	98c00117 	ldw	r3,4(r19)
    3c4c:	d9000104 	addi	r4,sp,4
    3c50:	12000003 	ldbu	r8,0(r2)
    3c54:	18ffffc4 	addi	r3,r3,-1
    3c58:	10800044 	addi	r2,r2,1
    3c5c:	98c00115 	stw	r3,4(r19)
    3c60:	98800015 	stw	r2,0(r19)
    3c64:	8c000044 	addi	r16,r17,1
    3c68:	dd400015 	stw	r21,0(sp)
    3c6c:	2463883a 	add	r17,r4,r17
    3c70:	200d883a 	mov	r6,r4
    3c74:	a00b883a 	mov	r5,r20
    3c78:	800f883a 	mov	r7,r16
    3c7c:	b809883a 	mov	r4,r23
    3c80:	8a000005 	stb	r8,0(r17)
    3c84:	000a05c0 	call	a05c <_mbrtowc_r>
    3c88:	017fffc4 	movi	r5,-1
    3c8c:	11404e26 	beq	r2,r5,3dc8 <__ssvfscanf_r+0x968>
    3c90:	1000601e 	bne	r2,zero,3e14 <__ssvfscanf_r+0x9b4>
    3c94:	d8c09f17 	ldw	r3,636(sp)
    3c98:	1800641e 	bne	r3,zero,3e2c <__ssvfscanf_r+0x9cc>
    3c9c:	a0000015 	stw	zero,0(r20)
    3ca0:	9425883a 	add	r18,r18,r16
    3ca4:	e179883a 	add	fp,fp,r5
    3ca8:	a5000104 	addi	r20,r20,4
    3cac:	98800117 	ldw	r2,4(r19)
    3cb0:	0023883a 	mov	r17,zero
    3cb4:	00804b16 	blt	zero,r2,3de4 <__ssvfscanf_r+0x984>
    3cb8:	980b883a 	mov	r5,r19
    3cbc:	b809883a 	mov	r4,r23
    3cc0:	000e63c0 	call	e63c <__ssrefill_r>
    3cc4:	10004726 	beq	r2,zero,3de4 <__ssvfscanf_r+0x984>
    3cc8:	88003f1e 	bne	r17,zero,3dc8 <__ssvfscanf_r+0x968>
    3ccc:	d8c09f17 	ldw	r3,636(sp)
    3cd0:	1800031e 	bne	r3,zero,3ce0 <__ssvfscanf_r+0x880>
    3cd4:	d900a017 	ldw	r4,640(sp)
    3cd8:	21000044 	addi	r4,r4,1
    3cdc:	d900a015 	stw	r4,640(sp)
    3ce0:	dd009d17 	ldw	r20,628(sp)
    3ce4:	a00d883a 	mov	r6,r20
    3ce8:	003e1a06 	br	3554 <__alt_mem_epcs_flash_controller_0+0xff802554>
    3cec:	8c40040c 	andi	r17,r17,16
    3cf0:	073fffc4 	movi	fp,-1
    3cf4:	883fa51e 	bne	r17,zero,3b8c <__alt_mem_epcs_flash_controller_0+0xff802b8c>
    3cf8:	d9409c17 	ldw	r5,624(sp)
    3cfc:	e2bfffc4 	addi	r10,fp,-1
    3d00:	2c000017 	ldw	r16,0(r5)
    3d04:	2c400104 	addi	r17,r5,4
    3d08:	8007883a 	mov	r3,r16
    3d0c:	82ab883a 	add	r21,r16,r10
    3d10:	00000306 	br	3d20 <__ssvfscanf_r+0x8c0>
    3d14:	99000017 	ldw	r4,0(r19)
    3d18:	e007883a 	mov	r3,fp
    3d1c:	20800003 	ldbu	r2,0(r4)
    3d20:	10803fcc 	andi	r2,r2,255
    3d24:	d9405884 	addi	r5,sp,354
    3d28:	2885883a 	add	r2,r5,r2
    3d2c:	10800007 	ldb	r2,0(r2)
    3d30:	10004b26 	beq	r2,zero,3e60 <__ssvfscanf_r+0xa00>
    3d34:	98800117 	ldw	r2,4(r19)
    3d38:	21400044 	addi	r5,r4,1
    3d3c:	99400015 	stw	r5,0(r19)
    3d40:	10bfffc4 	addi	r2,r2,-1
    3d44:	98800115 	stw	r2,4(r19)
    3d48:	20800003 	ldbu	r2,0(r4)
    3d4c:	1f000044 	addi	fp,r3,1
    3d50:	18800005 	stb	r2,0(r3)
    3d54:	1d400726 	beq	r3,r21,3d74 <__ssvfscanf_r+0x914>
    3d58:	98800117 	ldw	r2,4(r19)
    3d5c:	00bfed16 	blt	zero,r2,3d14 <__alt_mem_epcs_flash_controller_0+0xff802d14>
    3d60:	980b883a 	mov	r5,r19
    3d64:	b809883a 	mov	r4,r23
    3d68:	000e63c0 	call	e63c <__ssrefill_r>
    3d6c:	103fe926 	beq	r2,zero,3d14 <__alt_mem_epcs_flash_controller_0+0xff802d14>
    3d70:	87001526 	beq	r16,fp,3dc8 <__ssvfscanf_r+0x968>
    3d74:	e421c83a 	sub	r16,fp,r16
    3d78:	803dfa26 	beq	r16,zero,3564 <__alt_mem_epcs_flash_controller_0+0xff802564>
    3d7c:	d880a017 	ldw	r2,640(sp)
    3d80:	e0000005 	stb	zero,0(fp)
    3d84:	dc409c15 	stw	r17,624(sp)
    3d88:	10800044 	addi	r2,r2,1
    3d8c:	d880a015 	stw	r2,640(sp)
    3d90:	9425883a 	add	r18,r18,r16
    3d94:	a00d883a 	mov	r6,r20
    3d98:	003dee06 	br	3554 <__alt_mem_epcs_flash_controller_0+0xff802554>
    3d9c:	013fff84 	movi	r4,-2
    3da0:	1103ed1e 	bne	r2,r4,4d58 <__ssvfscanf_r+0x18f8>
    3da4:	8821883a 	mov	r16,r17
    3da8:	98800117 	ldw	r2,4(r19)
    3dac:	00834116 	blt	zero,r2,4ab4 <__ssvfscanf_r+0x1654>
    3db0:	980b883a 	mov	r5,r19
    3db4:	b809883a 	mov	r4,r23
    3db8:	000e63c0 	call	e63c <__ssrefill_r>
    3dbc:	10033d26 	beq	r2,zero,4ab4 <__ssvfscanf_r+0x1654>
    3dc0:	dc409f17 	ldw	r17,636(sp)
    3dc4:	80034426 	beq	r16,zero,4ad8 <__ssvfscanf_r+0x1678>
    3dc8:	d900a017 	ldw	r4,640(sp)
    3dcc:	203e8026 	beq	r4,zero,37d0 <__alt_mem_epcs_flash_controller_0+0xff8027d0>
    3dd0:	9880030b 	ldhu	r2,12(r19)
    3dd4:	1080100c 	andi	r2,r2,64
    3dd8:	103e7d1e 	bne	r2,zero,37d0 <__alt_mem_epcs_flash_controller_0+0xff8027d0>
    3ddc:	2005883a 	mov	r2,r4
    3de0:	003e7c06 	br	37d4 <__alt_mem_epcs_flash_controller_0+0xff8027d4>
    3de4:	e03f951e 	bne	fp,zero,3c3c <__alt_mem_epcs_flash_controller_0+0xff802c3c>
    3de8:	003fb806 	br	3ccc <__alt_mem_epcs_flash_controller_0+0xff802ccc>
    3dec:	d8809c17 	ldw	r2,624(sp)
    3df0:	15000017 	ldw	r20,0(r2)
    3df4:	10800104 	addi	r2,r2,4
    3df8:	d8809c15 	stw	r2,624(sp)
    3dfc:	003f8e06 	br	3c38 <__alt_mem_epcs_flash_controller_0+0xff802c38>
    3e00:	980b883a 	mov	r5,r19
    3e04:	b809883a 	mov	r4,r23
    3e08:	000e63c0 	call	e63c <__ssrefill_r>
    3e0c:	103f3626 	beq	r2,zero,3ae8 <__alt_mem_epcs_flash_controller_0+0xff802ae8>
    3e10:	003fed06 	br	3dc8 <__alt_mem_epcs_flash_controller_0+0xff802dc8>
    3e14:	013fff84 	movi	r4,-2
    3e18:	1100071e 	bne	r2,r4,3e38 <__ssvfscanf_r+0x9d8>
    3e1c:	98800117 	ldw	r2,4(r19)
    3e20:	8023883a 	mov	r17,r16
    3e24:	00bf8516 	blt	zero,r2,3c3c <__alt_mem_epcs_flash_controller_0+0xff802c3c>
    3e28:	003fa306 	br	3cb8 <__alt_mem_epcs_flash_controller_0+0xff802cb8>
    3e2c:	9425883a 	add	r18,r18,r16
    3e30:	e73fffc4 	addi	fp,fp,-1
    3e34:	003f9d06 	br	3cac <__alt_mem_epcs_flash_controller_0+0xff802cac>
    3e38:	d8c09f17 	ldw	r3,636(sp)
    3e3c:	9425883a 	add	r18,r18,r16
    3e40:	e73fffc4 	addi	fp,fp,-1
    3e44:	183f9826 	beq	r3,zero,3ca8 <__alt_mem_epcs_flash_controller_0+0xff802ca8>
    3e48:	003f9806 	br	3cac <__alt_mem_epcs_flash_controller_0+0xff802cac>
    3e4c:	8023883a 	mov	r17,r16
    3e50:	8821883a 	mov	r16,r17
    3e54:	003fce06 	br	3d90 <__alt_mem_epcs_flash_controller_0+0xff802d90>
    3e58:	803f3b1e 	bne	r16,zero,3b48 <__alt_mem_epcs_flash_controller_0+0xff802b48>
    3e5c:	003fda06 	br	3dc8 <__alt_mem_epcs_flash_controller_0+0xff802dc8>
    3e60:	1839883a 	mov	fp,r3
    3e64:	003fc306 	br	3d74 <__alt_mem_epcs_flash_controller_0+0xff802d74>
    3e68:	803fc91e 	bne	r16,zero,3d90 <__alt_mem_epcs_flash_controller_0+0xff802d90>
    3e6c:	003dbd06 	br	3564 <__alt_mem_epcs_flash_controller_0+0xff802564>
    3e70:	d8809c17 	ldw	r2,624(sp)
    3e74:	dcc00015 	stw	r19,0(sp)
    3e78:	b809883a 	mov	r4,r23
    3e7c:	11400017 	ldw	r5,0(r2)
    3e80:	e00f883a 	mov	r7,fp
    3e84:	01800044 	movi	r6,1
    3e88:	000e6ac0 	call	e6ac <_sfread_r>
    3e8c:	d9009c17 	ldw	r4,624(sp)
    3e90:	20c00104 	addi	r3,r4,4
    3e94:	103fcc26 	beq	r2,zero,3dc8 <__alt_mem_epcs_flash_controller_0+0xff802dc8>
    3e98:	d940a017 	ldw	r5,640(sp)
    3e9c:	dd009d17 	ldw	r20,628(sp)
    3ea0:	90a5883a 	add	r18,r18,r2
    3ea4:	29400044 	addi	r5,r5,1
    3ea8:	d940a015 	stw	r5,640(sp)
    3eac:	d8c09c15 	stw	r3,624(sp)
    3eb0:	a00d883a 	mov	r6,r20
    3eb4:	003da706 	br	3554 <__alt_mem_epcs_flash_controller_0+0xff802554>
    3eb8:	980b883a 	mov	r5,r19
    3ebc:	b809883a 	mov	r4,r23
    3ec0:	000e63c0 	call	e63c <__ssrefill_r>
    3ec4:	103e3626 	beq	r2,zero,37a0 <__alt_mem_epcs_flash_controller_0+0xff8027a0>
    3ec8:	003fbf06 	br	3dc8 <__alt_mem_epcs_flash_controller_0+0xff802dc8>
    3ecc:	98800117 	ldw	r2,4(r19)
    3ed0:	88e2b03a 	or	r17,r17,r3
    3ed4:	0080210e 	bge	zero,r2,3f5c <__ssvfscanf_r+0xafc>
    3ed8:	01400074 	movhi	r5,1
    3edc:	29768204 	addi	r5,r5,-9720
    3ee0:	00800284 	movi	r2,10
    3ee4:	d940a115 	stw	r5,644(sp)
    3ee8:	d8809e15 	stw	r2,632(sp)
    3eec:	050000c4 	movi	r20,3
    3ef0:	003e6906 	br	3898 <__alt_mem_epcs_flash_controller_0+0xff802898>
    3ef4:	a1400083 	ldbu	r5,2(r20)
    3ef8:	8c400094 	ori	r17,r17,2
    3efc:	a5000084 	addi	r20,r20,2
    3f00:	2d403fcc 	andi	r21,r5,255
    3f04:	003da106 	br	358c <__alt_mem_epcs_flash_controller_0+0xff80258c>
    3f08:	8880004c 	andi	r2,r17,1
    3f0c:	10000c1e 	bne	r2,zero,3f40 <__ssvfscanf_r+0xae0>
    3f10:	8c40008c 	andi	r17,r17,2
    3f14:	88000a26 	beq	r17,zero,3f40 <__ssvfscanf_r+0xae0>
    3f18:	d8c09c17 	ldw	r3,624(sp)
    3f1c:	d9009c17 	ldw	r4,624(sp)
    3f20:	dd009d17 	ldw	r20,628(sp)
    3f24:	18800017 	ldw	r2,0(r3)
    3f28:	9007d7fa 	srai	r3,r18,31
    3f2c:	21000104 	addi	r4,r4,4
    3f30:	14800015 	stw	r18,0(r2)
    3f34:	10c00115 	stw	r3,4(r2)
    3f38:	d9009c15 	stw	r4,624(sp)
    3f3c:	003d8406 	br	3550 <__alt_mem_epcs_flash_controller_0+0xff802550>
    3f40:	d9409c17 	ldw	r5,624(sp)
    3f44:	dd009d17 	ldw	r20,628(sp)
    3f48:	28800017 	ldw	r2,0(r5)
    3f4c:	29400104 	addi	r5,r5,4
    3f50:	d9409c15 	stw	r5,624(sp)
    3f54:	14800015 	stw	r18,0(r2)
    3f58:	003d7d06 	br	3550 <__alt_mem_epcs_flash_controller_0+0xff802550>
    3f5c:	980b883a 	mov	r5,r19
    3f60:	b809883a 	mov	r4,r23
    3f64:	000e63c0 	call	e63c <__ssrefill_r>
    3f68:	103f971e 	bne	r2,zero,3dc8 <__alt_mem_epcs_flash_controller_0+0xff802dc8>
    3f6c:	b4000017 	ldw	r16,0(r22)
    3f70:	003ed206 	br	3abc <__alt_mem_epcs_flash_controller_0+0xff802abc>
    3f74:	980b883a 	mov	r5,r19
    3f78:	b809883a 	mov	r4,r23
    3f7c:	000e63c0 	call	e63c <__ssrefill_r>
    3f80:	103f911e 	bne	r2,zero,3dc8 <__alt_mem_epcs_flash_controller_0+0xff802dc8>
    3f84:	01000074 	movhi	r4,1
    3f88:	2137e004 	addi	r4,r4,-8320
    3f8c:	01400404 	movi	r5,16
    3f90:	b4000017 	ldw	r16,0(r22)
    3f94:	d900a115 	stw	r4,644(sp)
    3f98:	d9409e15 	stw	r5,632(sp)
    3f9c:	050000c4 	movi	r20,3
    3fa0:	003e3d06 	br	3898 <__alt_mem_epcs_flash_controller_0+0xff802898>
    3fa4:	980b883a 	mov	r5,r19
    3fa8:	b809883a 	mov	r4,r23
    3fac:	000e63c0 	call	e63c <__ssrefill_r>
    3fb0:	103f851e 	bne	r2,zero,3dc8 <__alt_mem_epcs_flash_controller_0+0xff802dc8>
    3fb4:	b4000017 	ldw	r16,0(r22)
    3fb8:	05000084 	movi	r20,2
    3fbc:	003e3606 	br	3898 <__alt_mem_epcs_flash_controller_0+0xff802898>
    3fc0:	980b883a 	mov	r5,r19
    3fc4:	b809883a 	mov	r4,r23
    3fc8:	000e63c0 	call	e63c <__ssrefill_r>
    3fcc:	103eea26 	beq	r2,zero,3b78 <__alt_mem_epcs_flash_controller_0+0xff802b78>
    3fd0:	003f7d06 	br	3dc8 <__alt_mem_epcs_flash_controller_0+0xff802dc8>
    3fd4:	980b883a 	mov	r5,r19
    3fd8:	b809883a 	mov	r4,r23
    3fdc:	000e63c0 	call	e63c <__ssrefill_r>
    3fe0:	103f791e 	bne	r2,zero,3dc8 <__alt_mem_epcs_flash_controller_0+0xff802dc8>
    3fe4:	b4000017 	ldw	r16,0(r22)
    3fe8:	05000104 	movi	r20,4
    3fec:	003e2a06 	br	3898 <__alt_mem_epcs_flash_controller_0+0xff802898>
    3ff0:	980b883a 	mov	r5,r19
    3ff4:	b809883a 	mov	r4,r23
    3ff8:	000e63c0 	call	e63c <__ssrefill_r>
    3ffc:	103f721e 	bne	r2,zero,3dc8 <__alt_mem_epcs_flash_controller_0+0xff802dc8>
    4000:	b4000017 	ldw	r16,0(r22)
    4004:	003e8c06 	br	3a38 <__alt_mem_epcs_flash_controller_0+0xff802a38>
    4008:	980b883a 	mov	r5,r19
    400c:	b809883a 	mov	r4,r23
    4010:	000e63c0 	call	e63c <__ssrefill_r>
    4014:	103f6c1e 	bne	r2,zero,3dc8 <__alt_mem_epcs_flash_controller_0+0xff802dc8>
    4018:	00800074 	movhi	r2,1
    401c:	10b7e004 	addi	r2,r2,-8320
    4020:	00c00284 	movi	r3,10
    4024:	b4000017 	ldw	r16,0(r22)
    4028:	d880a115 	stw	r2,644(sp)
    402c:	d8c09e15 	stw	r3,632(sp)
    4030:	050000c4 	movi	r20,3
    4034:	003e1806 	br	3898 <__alt_mem_epcs_flash_controller_0+0xff802898>
    4038:	980b883a 	mov	r5,r19
    403c:	b809883a 	mov	r4,r23
    4040:	000e63c0 	call	e63c <__ssrefill_r>
    4044:	103f601e 	bne	r2,zero,3dc8 <__alt_mem_epcs_flash_controller_0+0xff802dc8>
    4048:	00800074 	movhi	r2,1
    404c:	10b7e004 	addi	r2,r2,-8320
    4050:	00c00204 	movi	r3,8
    4054:	b4000017 	ldw	r16,0(r22)
    4058:	d880a115 	stw	r2,644(sp)
    405c:	d8c09e15 	stw	r3,632(sp)
    4060:	050000c4 	movi	r20,3
    4064:	003e0c06 	br	3898 <__alt_mem_epcs_flash_controller_0+0xff802898>
    4068:	980b883a 	mov	r5,r19
    406c:	b809883a 	mov	r4,r23
    4070:	000e63c0 	call	e63c <__ssrefill_r>
    4074:	103f541e 	bne	r2,zero,3dc8 <__alt_mem_epcs_flash_controller_0+0xff802dc8>
    4078:	00800074 	movhi	r2,1
    407c:	10b68204 	addi	r2,r2,-9720
    4080:	b4000017 	ldw	r16,0(r22)
    4084:	d880a115 	stw	r2,644(sp)
    4088:	d8009e15 	stw	zero,632(sp)
    408c:	050000c4 	movi	r20,3
    4090:	003e0106 	br	3898 <__alt_mem_epcs_flash_controller_0+0xff802898>
    4094:	980b883a 	mov	r5,r19
    4098:	b809883a 	mov	r4,r23
    409c:	000e63c0 	call	e63c <__ssrefill_r>
    40a0:	103f491e 	bne	r2,zero,3dc8 <__alt_mem_epcs_flash_controller_0+0xff802dc8>
    40a4:	00800074 	movhi	r2,1
    40a8:	10b7e004 	addi	r2,r2,-8320
    40ac:	00c00404 	movi	r3,16
    40b0:	b4000017 	ldw	r16,0(r22)
    40b4:	d880a115 	stw	r2,644(sp)
    40b8:	d8c09e15 	stw	r3,632(sp)
    40bc:	050000c4 	movi	r20,3
    40c0:	003df506 	br	3898 <__alt_mem_epcs_flash_controller_0+0xff802898>
    40c4:	014000c4 	movi	r5,3
    40c8:	a1416726 	beq	r20,r5,4668 <__ssvfscanf_r+0x1208>
    40cc:	01000104 	movi	r4,4
    40d0:	a101491e 	bne	r20,r4,45f8 <__ssvfscanf_r+0x1198>
    40d4:	b809883a 	mov	r4,r23
    40d8:	0009e100 	call	9e10 <_localeconv_r>
    40dc:	10800017 	ldw	r2,0(r2)
    40e0:	e0ffffc4 	addi	r3,fp,-1
    40e4:	d880a315 	stw	r2,652(sp)
    40e8:	00805704 	movi	r2,348
    40ec:	10c21e2e 	bgeu	r2,r3,4968 <__ssvfscanf_r+0x1508>
    40f0:	e73fa8c4 	addi	fp,fp,-349
    40f4:	df00a215 	stw	fp,648(sp)
    40f8:	07005744 	movi	fp,349
    40fc:	8d01e014 	ori	r20,r17,1920
    4100:	0023883a 	mov	r17,zero
    4104:	dc000104 	addi	r16,sp,4
    4108:	002b883a 	mov	r21,zero
    410c:	8805883a 	mov	r2,r17
    4110:	0007883a 	mov	r3,zero
    4114:	8023883a 	mov	r17,r16
    4118:	b80d883a 	mov	r6,r23
    411c:	e021883a 	mov	r16,fp
    4120:	a82f883a 	mov	r23,r21
    4124:	d800a515 	stw	zero,660(sp)
    4128:	d800a415 	stw	zero,656(sp)
    412c:	d8009f15 	stw	zero,636(sp)
    4130:	01c01384 	movi	r7,78
    4134:	182b883a 	mov	r21,r3
    4138:	1039883a 	mov	fp,r2
    413c:	99000017 	ldw	r4,0(r19)
    4140:	21400003 	ldbu	r5,0(r4)
    4144:	28bff544 	addi	r2,r5,-43
    4148:	10803fcc 	andi	r2,r2,255
    414c:	38810e36 	bltu	r7,r2,4588 <__ssvfscanf_r+0x1128>
    4150:	100490ba 	slli	r2,r2,2
    4154:	00c00034 	movhi	r3,0
    4158:	18d05a04 	addi	r3,r3,16744
    415c:	10c5883a 	add	r2,r2,r3
    4160:	10800017 	ldw	r2,0(r2)
    4164:	1000683a 	jmp	r2
    4168:	0000445c 	xori	zero,zero,273
    416c:	00004588 	cmpgei	zero,zero,278
    4170:	0000445c 	xori	zero,zero,273
    4174:	00004588 	cmpgei	zero,zero,278
    4178:	00004588 	cmpgei	zero,zero,278
    417c:	00004430 	cmpltui	zero,zero,272
    4180:	000042a4 	muli	zero,zero,266
    4184:	000042a4 	muli	zero,zero,266
    4188:	000042a4 	muli	zero,zero,266
    418c:	000042a4 	muli	zero,zero,266
    4190:	000042a4 	muli	zero,zero,266
    4194:	000042a4 	muli	zero,zero,266
    4198:	000042a4 	muli	zero,zero,266
    419c:	000042a4 	muli	zero,zero,266
    41a0:	000042a4 	muli	zero,zero,266
    41a4:	00004588 	cmpgei	zero,zero,278
    41a8:	00004588 	cmpgei	zero,zero,278
    41ac:	00004588 	cmpgei	zero,zero,278
    41b0:	00004588 	cmpgei	zero,zero,278
    41b4:	00004588 	cmpgei	zero,zero,278
    41b8:	00004588 	cmpgei	zero,zero,278
    41bc:	00004588 	cmpgei	zero,zero,278
    41c0:	00004578 	rdprs	zero,zero,277
    41c4:	00004588 	cmpgei	zero,zero,278
    41c8:	00004588 	cmpgei	zero,zero,278
    41cc:	00004588 	cmpgei	zero,zero,278
    41d0:	00004534 	movhi	zero,276
    41d4:	00004518 	cmpnei	zero,zero,276
    41d8:	00004588 	cmpgei	zero,zero,278
    41dc:	00004588 	cmpgei	zero,zero,278
    41e0:	000044e0 	cmpeqi	zero,zero,275
    41e4:	00004588 	cmpgei	zero,zero,278
    41e8:	00004588 	cmpgei	zero,zero,278
    41ec:	00004588 	cmpgei	zero,zero,278
    41f0:	00004588 	cmpgei	zero,zero,278
    41f4:	000044a8 	cmpgeui	zero,zero,274
    41f8:	00004588 	cmpgei	zero,zero,278
    41fc:	00004588 	cmpgei	zero,zero,278
    4200:	00004588 	cmpgei	zero,zero,278
    4204:	00004588 	cmpgei	zero,zero,278
    4208:	00004588 	cmpgei	zero,zero,278
    420c:	0000448c 	andi	zero,zero,274
    4210:	00004588 	cmpgei	zero,zero,278
    4214:	00004588 	cmpgei	zero,zero,278
    4218:	00004588 	cmpgei	zero,zero,278
    421c:	00004588 	cmpgei	zero,zero,278
    4220:	00004470 	cmpltui	zero,zero,273
    4224:	00004588 	cmpgei	zero,zero,278
    4228:	00004588 	cmpgei	zero,zero,278
    422c:	00004588 	cmpgei	zero,zero,278
    4230:	00004588 	cmpgei	zero,zero,278
    4234:	00004588 	cmpgei	zero,zero,278
    4238:	00004588 	cmpgei	zero,zero,278
    423c:	00004588 	cmpgei	zero,zero,278
    4240:	00004578 	rdprs	zero,zero,277
    4244:	00004588 	cmpgei	zero,zero,278
    4248:	00004588 	cmpgei	zero,zero,278
    424c:	00004588 	cmpgei	zero,zero,278
    4250:	00004534 	movhi	zero,276
    4254:	00004518 	cmpnei	zero,zero,276
    4258:	00004588 	cmpgei	zero,zero,278
    425c:	00004588 	cmpgei	zero,zero,278
    4260:	000044e0 	cmpeqi	zero,zero,275
    4264:	00004588 	cmpgei	zero,zero,278
    4268:	00004588 	cmpgei	zero,zero,278
    426c:	00004588 	cmpgei	zero,zero,278
    4270:	00004588 	cmpgei	zero,zero,278
    4274:	000044a8 	cmpgeui	zero,zero,274
    4278:	00004588 	cmpgei	zero,zero,278
    427c:	00004588 	cmpgei	zero,zero,278
    4280:	00004588 	cmpgei	zero,zero,278
    4284:	00004588 	cmpgei	zero,zero,278
    4288:	00004588 	cmpgei	zero,zero,278
    428c:	0000448c 	andi	zero,zero,274
    4290:	00004588 	cmpgei	zero,zero,278
    4294:	00004588 	cmpgei	zero,zero,278
    4298:	00004588 	cmpgei	zero,zero,278
    429c:	00004588 	cmpgei	zero,zero,278
    42a0:	00004470 	cmpltui	zero,zero,273
    42a4:	a8803fcc 	andi	r2,r21,255
    42a8:	1080201c 	xori	r2,r2,128
    42ac:	10bfe004 	addi	r2,r2,-128
    42b0:	b885883a 	add	r2,r23,r2
    42b4:	10000d1e 	bne	r2,zero,42ec <__ssvfscanf_r+0xe8c>
    42b8:	00bf9fc4 	movi	r2,-385
    42bc:	a0a8703a 	and	r20,r20,r2
    42c0:	89400005 	stb	r5,0(r17)
    42c4:	8c400044 	addi	r17,r17,1
    42c8:	98800117 	ldw	r2,4(r19)
    42cc:	843fffc4 	addi	r16,r16,-1
    42d0:	94800044 	addi	r18,r18,1
    42d4:	10bfffc4 	addi	r2,r2,-1
    42d8:	98800115 	stw	r2,4(r19)
    42dc:	0080b40e 	bge	zero,r2,45b0 <__ssvfscanf_r+0x1150>
    42e0:	21000044 	addi	r4,r4,1
    42e4:	99000015 	stw	r4,0(r19)
    42e8:	803f941e 	bne	r16,zero,413c <__alt_mem_epcs_flash_controller_0+0xff80313c>
    42ec:	8821883a 	mov	r16,r17
    42f0:	a807883a 	mov	r3,r21
    42f4:	e023883a 	mov	r17,fp
    42f8:	b82b883a 	mov	r21,r23
    42fc:	302f883a 	mov	r23,r6
    4300:	e001961e 	bne	fp,zero,495c <__ssvfscanf_r+0x14fc>
    4304:	ab3fffc4 	addi	r12,r21,-1
    4308:	00800044 	movi	r2,1
    430c:	1302a22e 	bgeu	r2,r12,4d98 <__ssvfscanf_r+0x1938>
    4310:	18803fcc 	andi	r2,r3,255
    4314:	1080201c 	xori	r2,r2,128
    4318:	10bfe004 	addi	r2,r2,-128
    431c:	113fffc4 	addi	r4,r2,-1
    4320:	01400184 	movi	r5,6
    4324:	29001136 	bltu	r5,r4,436c <__ssvfscanf_r+0xf0c>
    4328:	01000084 	movi	r4,2
    432c:	2082770e 	bge	r4,r2,4d0c <__ssvfscanf_r+0x18ac>
    4330:	054000c4 	movi	r21,3
    4334:	1839883a 	mov	fp,r3
    4338:	15400c26 	beq	r2,r21,436c <__ssvfscanf_r+0xf0c>
    433c:	9425c83a 	sub	r18,r18,r16
    4340:	843fffc4 	addi	r16,r16,-1
    4344:	81400007 	ldb	r5,0(r16)
    4348:	980d883a 	mov	r6,r19
    434c:	b809883a 	mov	r4,r23
    4350:	000e5340 	call	e534 <_sungetc_r>
    4354:	e0bfffc4 	addi	r2,fp,-1
    4358:	10c03fcc 	andi	r3,r2,255
    435c:	8493883a 	add	r9,r16,r18
    4360:	1039883a 	mov	fp,r2
    4364:	a8fff636 	bltu	r21,r3,4340 <__alt_mem_epcs_flash_controller_0+0xff803340>
    4368:	4825883a 	mov	r18,r9
    436c:	a080400c 	andi	r2,r20,256
    4370:	10001426 	beq	r2,zero,43c4 <__ssvfscanf_r+0xf64>
    4374:	a081000c 	andi	r2,r20,1024
    4378:	10027b1e 	bne	r2,zero,4d68 <__ssvfscanf_r+0x1908>
    437c:	817fffc7 	ldb	r5,-1(r16)
    4380:	00801944 	movi	r2,101
    4384:	873fffc4 	addi	fp,r16,-1
    4388:	957fffc4 	addi	r21,r18,-1
    438c:	28800826 	beq	r5,r2,43b0 <__ssvfscanf_r+0xf50>
    4390:	00801144 	movi	r2,69
    4394:	28800626 	beq	r5,r2,43b0 <__ssvfscanf_r+0xf50>
    4398:	980d883a 	mov	r6,r19
    439c:	b809883a 	mov	r4,r23
    43a0:	000e5340 	call	e534 <_sungetc_r>
    43a4:	817fff87 	ldb	r5,-2(r16)
    43a8:	873fff84 	addi	fp,r16,-2
    43ac:	957fff84 	addi	r21,r18,-2
    43b0:	980d883a 	mov	r6,r19
    43b4:	b809883a 	mov	r4,r23
    43b8:	000e5340 	call	e534 <_sungetc_r>
    43bc:	a825883a 	mov	r18,r21
    43c0:	e021883a 	mov	r16,fp
    43c4:	a080040c 	andi	r2,r20,16
    43c8:	103e451e 	bne	r2,zero,3ce0 <__alt_mem_epcs_flash_controller_0+0xff802ce0>
    43cc:	80000005 	stb	zero,0(r16)
    43d0:	a081800c 	andi	r2,r20,1536
    43d4:	01010004 	movi	r4,1024
    43d8:	1101ea26 	beq	r2,r4,4b84 <__ssvfscanf_r+0x1724>
    43dc:	d8c0a417 	ldw	r3,656(sp)
    43e0:	1801f41e 	bne	r3,zero,4bb4 <__ssvfscanf_r+0x1754>
    43e4:	000d883a 	mov	r6,zero
    43e8:	d9400104 	addi	r5,sp,4
    43ec:	b809883a 	mov	r4,r23
    43f0:	000c30c0 	call	c30c <_strtod_r>
    43f4:	1021883a 	mov	r16,r2
    43f8:	a080004c 	andi	r2,r20,1
    43fc:	1001b926 	beq	r2,zero,4ae4 <__ssvfscanf_r+0x1684>
    4400:	d9009c17 	ldw	r4,624(sp)
    4404:	20800017 	ldw	r2,0(r4)
    4408:	21000104 	addi	r4,r4,4
    440c:	d9009c15 	stw	r4,624(sp)
    4410:	14000015 	stw	r16,0(r2)
    4414:	10c00115 	stw	r3,4(r2)
    4418:	d8c0a017 	ldw	r3,640(sp)
    441c:	dd009d17 	ldw	r20,628(sp)
    4420:	18c00044 	addi	r3,r3,1
    4424:	d8c0a015 	stw	r3,640(sp)
    4428:	a00d883a 	mov	r6,r20
    442c:	003c4906 	br	3554 <__alt_mem_epcs_flash_controller_0+0xff802554>
    4430:	a080400c 	andi	r2,r20,256
    4434:	103f9b26 	beq	r2,zero,42a4 <__alt_mem_epcs_flash_controller_0+0xff8032a4>
    4438:	d8c0a217 	ldw	r3,648(sp)
    443c:	00bfdfc4 	movi	r2,-129
    4440:	a0a8703a 	and	r20,r20,r2
    4444:	e7000044 	addi	fp,fp,1
    4448:	183f9f26 	beq	r3,zero,42c8 <__alt_mem_epcs_flash_controller_0+0xff8032c8>
    444c:	18ffffc4 	addi	r3,r3,-1
    4450:	d8c0a215 	stw	r3,648(sp)
    4454:	84000044 	addi	r16,r16,1
    4458:	003f9b06 	br	42c8 <__alt_mem_epcs_flash_controller_0+0xff8032c8>
    445c:	a080200c 	andi	r2,r20,128
    4460:	103fa226 	beq	r2,zero,42ec <__alt_mem_epcs_flash_controller_0+0xff8032ec>
    4464:	00bfdfc4 	movi	r2,-129
    4468:	a0a8703a 	and	r20,r20,r2
    446c:	003f9406 	br	42c0 <__alt_mem_epcs_flash_controller_0+0xff8032c0>
    4470:	a8803fcc 	andi	r2,r21,255
    4474:	1080201c 	xori	r2,r2,128
    4478:	10bfe004 	addi	r2,r2,-128
    447c:	00c001c4 	movi	r3,7
    4480:	10ff9a1e 	bne	r2,r3,42ec <__alt_mem_epcs_flash_controller_0+0xff8032ec>
    4484:	05400204 	movi	r21,8
    4488:	003f8d06 	br	42c0 <__alt_mem_epcs_flash_controller_0+0xff8032c0>
    448c:	a8803fcc 	andi	r2,r21,255
    4490:	1080201c 	xori	r2,r2,128
    4494:	10bfe004 	addi	r2,r2,-128
    4498:	02000184 	movi	r8,6
    449c:	123f931e 	bne	r2,r8,42ec <__alt_mem_epcs_flash_controller_0+0xff8032ec>
    44a0:	054001c4 	movi	r21,7
    44a4:	003f8606 	br	42c0 <__alt_mem_epcs_flash_controller_0+0xff8032c0>
    44a8:	b8004f1e 	bne	r23,zero,45e8 <__ssvfscanf_r+0x1188>
    44ac:	e000031e 	bne	fp,zero,44bc <__ssvfscanf_r+0x105c>
    44b0:	a081c00c 	andi	r2,r20,1792
    44b4:	0201c004 	movi	r8,1792
    44b8:	1201a226 	beq	r2,r8,4b44 <__ssvfscanf_r+0x16e4>
    44bc:	a8803fcc 	andi	r2,r21,255
    44c0:	1080201c 	xori	r2,r2,128
    44c4:	10bfe004 	addi	r2,r2,-128
    44c8:	02000044 	movi	r8,1
    44cc:	12000226 	beq	r2,r8,44d8 <__ssvfscanf_r+0x1078>
    44d0:	02000104 	movi	r8,4
    44d4:	123f851e 	bne	r2,r8,42ec <__alt_mem_epcs_flash_controller_0+0xff8032ec>
    44d8:	ad400044 	addi	r21,r21,1
    44dc:	003f7806 	br	42c0 <__alt_mem_epcs_flash_controller_0+0xff8032c0>
    44e0:	a8803fcc 	andi	r2,r21,255
    44e4:	1080201c 	xori	r2,r2,128
    44e8:	10bfe004 	addi	r2,r2,-128
    44ec:	1000391e 	bne	r2,zero,45d4 <__ssvfscanf_r+0x1174>
    44f0:	e001151e 	bne	fp,zero,4948 <__ssvfscanf_r+0x14e8>
    44f4:	a081c00c 	andi	r2,r20,1792
    44f8:	0201c004 	movi	r8,1792
    44fc:	12019b26 	beq	r2,r8,4b6c <__ssvfscanf_r+0x170c>
    4500:	8821883a 	mov	r16,r17
    4504:	a807883a 	mov	r3,r21
    4508:	e023883a 	mov	r17,fp
    450c:	b82b883a 	mov	r21,r23
    4510:	302f883a 	mov	r23,r6
    4514:	003f7b06 	br	4304 <__alt_mem_epcs_flash_controller_0+0xff803304>
    4518:	a8803fcc 	andi	r2,r21,255
    451c:	1080201c 	xori	r2,r2,128
    4520:	10bfe004 	addi	r2,r2,-128
    4524:	02000084 	movi	r8,2
    4528:	123f701e 	bne	r2,r8,42ec <__alt_mem_epcs_flash_controller_0+0xff8032ec>
    452c:	054000c4 	movi	r21,3
    4530:	003f6306 	br	42c0 <__alt_mem_epcs_flash_controller_0+0xff8032c0>
    4534:	a081400c 	andi	r2,r20,1280
    4538:	00c10004 	movi	r3,1024
    453c:	10c00326 	beq	r2,r3,454c <__ssvfscanf_r+0x10ec>
    4540:	a0c4703a 	and	r2,r20,r3
    4544:	103f6926 	beq	r2,zero,42ec <__alt_mem_epcs_flash_controller_0+0xff8032ec>
    4548:	e03fed26 	beq	fp,zero,4500 <__alt_mem_epcs_flash_controller_0+0xff803500>
    454c:	a080800c 	andi	r2,r20,512
    4550:	1000041e 	bne	r2,zero,4564 <__ssvfscanf_r+0x1104>
    4554:	d8c09f17 	ldw	r3,636(sp)
    4558:	dc40a515 	stw	r17,660(sp)
    455c:	e0f9c83a 	sub	fp,fp,r3
    4560:	df00a415 	stw	fp,656(sp)
    4564:	00be1fc4 	movi	r2,-1921
    4568:	a0a8703a 	and	r20,r20,r2
    456c:	a5006014 	ori	r20,r20,384
    4570:	0039883a 	mov	fp,zero
    4574:	003f5206 	br	42c0 <__alt_mem_epcs_flash_controller_0+0xff8032c0>
    4578:	00800044 	movi	r2,1
    457c:	b8bf5b1e 	bne	r23,r2,42ec <__alt_mem_epcs_flash_controller_0+0xff8032ec>
    4580:	05c00084 	movi	r23,2
    4584:	003f4e06 	br	42c0 <__alt_mem_epcs_flash_controller_0+0xff8032c0>
    4588:	d8c0a317 	ldw	r3,652(sp)
    458c:	2a003fcc 	andi	r8,r5,255
    4590:	18800003 	ldbu	r2,0(r3)
    4594:	40bf551e 	bne	r8,r2,42ec <__alt_mem_epcs_flash_controller_0+0xff8032ec>
    4598:	a080800c 	andi	r2,r20,512
    459c:	103f5326 	beq	r2,zero,42ec <__alt_mem_epcs_flash_controller_0+0xff8032ec>
    45a0:	00bf5fc4 	movi	r2,-641
    45a4:	a0a8703a 	and	r20,r20,r2
    45a8:	df009f15 	stw	fp,636(sp)
    45ac:	003f4406 	br	42c0 <__alt_mem_epcs_flash_controller_0+0xff8032c0>
    45b0:	3009883a 	mov	r4,r6
    45b4:	980b883a 	mov	r5,r19
    45b8:	d980a915 	stw	r6,676(sp)
    45bc:	d9c0aa15 	stw	r7,680(sp)
    45c0:	000e63c0 	call	e63c <__ssrefill_r>
    45c4:	d980a917 	ldw	r6,676(sp)
    45c8:	d9c0aa17 	ldw	r7,680(sp)
    45cc:	103f4626 	beq	r2,zero,42e8 <__alt_mem_epcs_flash_controller_0+0xff8032e8>
    45d0:	003f4606 	br	42ec <__alt_mem_epcs_flash_controller_0+0xff8032ec>
    45d4:	020000c4 	movi	r8,3
    45d8:	123fbf26 	beq	r2,r8,44d8 <__alt_mem_epcs_flash_controller_0+0xff8034d8>
    45dc:	02000144 	movi	r8,5
    45e0:	123fbd26 	beq	r2,r8,44d8 <__alt_mem_epcs_flash_controller_0+0xff8034d8>
    45e4:	003f4106 	br	42ec <__alt_mem_epcs_flash_controller_0+0xff8032ec>
    45e8:	00800084 	movi	r2,2
    45ec:	b8bfb31e 	bne	r23,r2,44bc <__alt_mem_epcs_flash_controller_0+0xff8034bc>
    45f0:	05c000c4 	movi	r23,3
    45f4:	003f3206 	br	42c0 <__alt_mem_epcs_flash_controller_0+0xff8032c0>
    45f8:	e000011e 	bne	fp,zero,4600 <__ssvfscanf_r+0x11a0>
